ARM GAS  /tmp/ccVx4VbF.s 			page 1


   1              		.cpu cortex-m3
   2              		.eabi_attribute 20, 1
   3              		.eabi_attribute 21, 1
   4              		.eabi_attribute 23, 3
   5              		.eabi_attribute 24, 1
   6              		.eabi_attribute 25, 1
   7              		.eabi_attribute 26, 1
   8              		.eabi_attribute 30, 6
   9              		.eabi_attribute 34, 1
  10              		.eabi_attribute 18, 4
  11              		.file	"stm32f1xx_hal_dma.c"
  12              		.text
  13              	.Ltext0:
  14              		.cfi_sections	.debug_frame
  15              		.section	.text.HAL_DMA_Init,"ax",%progbits
  16              		.align	1
  17              		.global	HAL_DMA_Init
  18              		.arch armv7-m
  19              		.syntax unified
  20              		.thumb
  21              		.thumb_func
  22              		.fpu softvfp
  24              	HAL_DMA_Init:
  25              	.LFB66:
  26              		.file 1 "Drivers/STM32F1xx_HAL_Driver/Src/stm32f1xx_hal_dma.c"
   1:Drivers/STM32F1xx_HAL_Driver/Src/stm32f1xx_hal_dma.c **** /**
   2:Drivers/STM32F1xx_HAL_Driver/Src/stm32f1xx_hal_dma.c ****   ******************************************************************************
   3:Drivers/STM32F1xx_HAL_Driver/Src/stm32f1xx_hal_dma.c ****   * @file    stm32f1xx_hal_dma.c
   4:Drivers/STM32F1xx_HAL_Driver/Src/stm32f1xx_hal_dma.c ****   * @author  MCD Application Team
   5:Drivers/STM32F1xx_HAL_Driver/Src/stm32f1xx_hal_dma.c ****   * @brief   DMA HAL module driver.
   6:Drivers/STM32F1xx_HAL_Driver/Src/stm32f1xx_hal_dma.c ****   *         This file provides firmware functions to manage the following
   7:Drivers/STM32F1xx_HAL_Driver/Src/stm32f1xx_hal_dma.c ****   *         functionalities of the Direct Memory Access (DMA) peripheral:
   8:Drivers/STM32F1xx_HAL_Driver/Src/stm32f1xx_hal_dma.c ****   *           + Initialization and de-initialization functions
   9:Drivers/STM32F1xx_HAL_Driver/Src/stm32f1xx_hal_dma.c ****   *           + IO operation functions
  10:Drivers/STM32F1xx_HAL_Driver/Src/stm32f1xx_hal_dma.c ****   *           + Peripheral State and errors functions
  11:Drivers/STM32F1xx_HAL_Driver/Src/stm32f1xx_hal_dma.c ****   @verbatim
  12:Drivers/STM32F1xx_HAL_Driver/Src/stm32f1xx_hal_dma.c ****   ==============================================================================
  13:Drivers/STM32F1xx_HAL_Driver/Src/stm32f1xx_hal_dma.c ****                         ##### How to use this driver #####
  14:Drivers/STM32F1xx_HAL_Driver/Src/stm32f1xx_hal_dma.c ****   ==============================================================================
  15:Drivers/STM32F1xx_HAL_Driver/Src/stm32f1xx_hal_dma.c ****   [..]
  16:Drivers/STM32F1xx_HAL_Driver/Src/stm32f1xx_hal_dma.c ****    (#) Enable and configure the peripheral to be connected to the DMA Channel
  17:Drivers/STM32F1xx_HAL_Driver/Src/stm32f1xx_hal_dma.c ****        (except for internal SRAM / FLASH memories: no initialization is 
  18:Drivers/STM32F1xx_HAL_Driver/Src/stm32f1xx_hal_dma.c ****        necessary). Please refer to the Reference manual for connection between peripherals
  19:Drivers/STM32F1xx_HAL_Driver/Src/stm32f1xx_hal_dma.c ****        and DMA requests.
  20:Drivers/STM32F1xx_HAL_Driver/Src/stm32f1xx_hal_dma.c **** 
  21:Drivers/STM32F1xx_HAL_Driver/Src/stm32f1xx_hal_dma.c ****    (#) For a given Channel, program the required configuration through the following parameters:
  22:Drivers/STM32F1xx_HAL_Driver/Src/stm32f1xx_hal_dma.c ****        Channel request, Transfer Direction, Source and Destination data formats,
  23:Drivers/STM32F1xx_HAL_Driver/Src/stm32f1xx_hal_dma.c ****        Circular or Normal mode, Channel Priority level, Source and Destination Increment mode
  24:Drivers/STM32F1xx_HAL_Driver/Src/stm32f1xx_hal_dma.c ****        using HAL_DMA_Init() function.
  25:Drivers/STM32F1xx_HAL_Driver/Src/stm32f1xx_hal_dma.c **** 
  26:Drivers/STM32F1xx_HAL_Driver/Src/stm32f1xx_hal_dma.c ****    (#) Use HAL_DMA_GetState() function to return the DMA state and HAL_DMA_GetError() in case of er
  27:Drivers/STM32F1xx_HAL_Driver/Src/stm32f1xx_hal_dma.c ****        detection.
  28:Drivers/STM32F1xx_HAL_Driver/Src/stm32f1xx_hal_dma.c ****                     
  29:Drivers/STM32F1xx_HAL_Driver/Src/stm32f1xx_hal_dma.c ****    (#) Use HAL_DMA_Abort() function to abort the current transfer
  30:Drivers/STM32F1xx_HAL_Driver/Src/stm32f1xx_hal_dma.c ****                    
  31:Drivers/STM32F1xx_HAL_Driver/Src/stm32f1xx_hal_dma.c ****      -@-   In Memory-to-Memory transfer mode, Circular mode is not allowed.
  32:Drivers/STM32F1xx_HAL_Driver/Src/stm32f1xx_hal_dma.c ****      *** Polling mode IO operation ***
ARM GAS  /tmp/ccVx4VbF.s 			page 2


  33:Drivers/STM32F1xx_HAL_Driver/Src/stm32f1xx_hal_dma.c ****      =================================
  34:Drivers/STM32F1xx_HAL_Driver/Src/stm32f1xx_hal_dma.c ****     [..]
  35:Drivers/STM32F1xx_HAL_Driver/Src/stm32f1xx_hal_dma.c ****           (+) Use HAL_DMA_Start() to start DMA transfer after the configuration of Source
  36:Drivers/STM32F1xx_HAL_Driver/Src/stm32f1xx_hal_dma.c ****               address and destination address and the Length of data to be transferred
  37:Drivers/STM32F1xx_HAL_Driver/Src/stm32f1xx_hal_dma.c ****           (+) Use HAL_DMA_PollForTransfer() to poll for the end of current transfer, in this
  38:Drivers/STM32F1xx_HAL_Driver/Src/stm32f1xx_hal_dma.c ****               case a fixed Timeout can be configured by User depending from his application.
  39:Drivers/STM32F1xx_HAL_Driver/Src/stm32f1xx_hal_dma.c **** 
  40:Drivers/STM32F1xx_HAL_Driver/Src/stm32f1xx_hal_dma.c ****      *** Interrupt mode IO operation ***
  41:Drivers/STM32F1xx_HAL_Driver/Src/stm32f1xx_hal_dma.c ****      ===================================
  42:Drivers/STM32F1xx_HAL_Driver/Src/stm32f1xx_hal_dma.c ****     [..]
  43:Drivers/STM32F1xx_HAL_Driver/Src/stm32f1xx_hal_dma.c ****           (+) Configure the DMA interrupt priority using HAL_NVIC_SetPriority()
  44:Drivers/STM32F1xx_HAL_Driver/Src/stm32f1xx_hal_dma.c ****           (+) Enable the DMA IRQ handler using HAL_NVIC_EnableIRQ()
  45:Drivers/STM32F1xx_HAL_Driver/Src/stm32f1xx_hal_dma.c ****           (+) Use HAL_DMA_Start_IT() to start DMA transfer after the configuration of
  46:Drivers/STM32F1xx_HAL_Driver/Src/stm32f1xx_hal_dma.c ****               Source address and destination address and the Length of data to be transferred.
  47:Drivers/STM32F1xx_HAL_Driver/Src/stm32f1xx_hal_dma.c ****               In this case the DMA interrupt is configured
  48:Drivers/STM32F1xx_HAL_Driver/Src/stm32f1xx_hal_dma.c ****           (+) Use HAL_DMA_IRQHandler() called under DMA_IRQHandler() Interrupt subroutine
  49:Drivers/STM32F1xx_HAL_Driver/Src/stm32f1xx_hal_dma.c ****           (+) At the end of data transfer HAL_DMA_IRQHandler() function is executed and user can
  50:Drivers/STM32F1xx_HAL_Driver/Src/stm32f1xx_hal_dma.c ****               add his own function by customization of function pointer XferCpltCallback and
  51:Drivers/STM32F1xx_HAL_Driver/Src/stm32f1xx_hal_dma.c ****               XferErrorCallback (i.e. a member of DMA handle structure).
  52:Drivers/STM32F1xx_HAL_Driver/Src/stm32f1xx_hal_dma.c **** 
  53:Drivers/STM32F1xx_HAL_Driver/Src/stm32f1xx_hal_dma.c ****      *** DMA HAL driver macros list ***
  54:Drivers/STM32F1xx_HAL_Driver/Src/stm32f1xx_hal_dma.c ****      ============================================= 
  55:Drivers/STM32F1xx_HAL_Driver/Src/stm32f1xx_hal_dma.c ****       [..]
  56:Drivers/STM32F1xx_HAL_Driver/Src/stm32f1xx_hal_dma.c ****        Below the list of most used macros in DMA HAL driver.
  57:Drivers/STM32F1xx_HAL_Driver/Src/stm32f1xx_hal_dma.c **** 
  58:Drivers/STM32F1xx_HAL_Driver/Src/stm32f1xx_hal_dma.c ****        (+) __HAL_DMA_ENABLE: Enable the specified DMA Channel.
  59:Drivers/STM32F1xx_HAL_Driver/Src/stm32f1xx_hal_dma.c ****        (+) __HAL_DMA_DISABLE: Disable the specified DMA Channel.
  60:Drivers/STM32F1xx_HAL_Driver/Src/stm32f1xx_hal_dma.c ****        (+) __HAL_DMA_GET_FLAG: Get the DMA Channel pending flags.
  61:Drivers/STM32F1xx_HAL_Driver/Src/stm32f1xx_hal_dma.c ****        (+) __HAL_DMA_CLEAR_FLAG: Clear the DMA Channel pending flags.
  62:Drivers/STM32F1xx_HAL_Driver/Src/stm32f1xx_hal_dma.c ****        (+) __HAL_DMA_ENABLE_IT: Enable the specified DMA Channel interrupts.
  63:Drivers/STM32F1xx_HAL_Driver/Src/stm32f1xx_hal_dma.c ****        (+) __HAL_DMA_DISABLE_IT: Disable the specified DMA Channel interrupts.
  64:Drivers/STM32F1xx_HAL_Driver/Src/stm32f1xx_hal_dma.c ****        (+) __HAL_DMA_GET_IT_SOURCE: Check whether the specified DMA Channel interrupt has occurred 
  65:Drivers/STM32F1xx_HAL_Driver/Src/stm32f1xx_hal_dma.c **** 
  66:Drivers/STM32F1xx_HAL_Driver/Src/stm32f1xx_hal_dma.c ****      [..] 
  67:Drivers/STM32F1xx_HAL_Driver/Src/stm32f1xx_hal_dma.c ****       (@) You can refer to the DMA HAL driver header file for more useful macros  
  68:Drivers/STM32F1xx_HAL_Driver/Src/stm32f1xx_hal_dma.c **** 
  69:Drivers/STM32F1xx_HAL_Driver/Src/stm32f1xx_hal_dma.c ****   @endverbatim
  70:Drivers/STM32F1xx_HAL_Driver/Src/stm32f1xx_hal_dma.c ****   ******************************************************************************
  71:Drivers/STM32F1xx_HAL_Driver/Src/stm32f1xx_hal_dma.c ****   * @attention
  72:Drivers/STM32F1xx_HAL_Driver/Src/stm32f1xx_hal_dma.c ****   *
  73:Drivers/STM32F1xx_HAL_Driver/Src/stm32f1xx_hal_dma.c ****   * <h2><center>&copy; COPYRIGHT(c) 2017 STMicroelectronics</center></h2>
  74:Drivers/STM32F1xx_HAL_Driver/Src/stm32f1xx_hal_dma.c ****   *
  75:Drivers/STM32F1xx_HAL_Driver/Src/stm32f1xx_hal_dma.c ****   * Redistribution and use in source and binary forms, with or without modification,
  76:Drivers/STM32F1xx_HAL_Driver/Src/stm32f1xx_hal_dma.c ****   * are permitted provided that the following conditions are met:
  77:Drivers/STM32F1xx_HAL_Driver/Src/stm32f1xx_hal_dma.c ****   *   1. Redistributions of source code must retain the above copyright notice,
  78:Drivers/STM32F1xx_HAL_Driver/Src/stm32f1xx_hal_dma.c ****   *      this list of conditions and the following disclaimer.
  79:Drivers/STM32F1xx_HAL_Driver/Src/stm32f1xx_hal_dma.c ****   *   2. Redistributions in binary form must reproduce the above copyright notice,
  80:Drivers/STM32F1xx_HAL_Driver/Src/stm32f1xx_hal_dma.c ****   *      this list of conditions and the following disclaimer in the documentation
  81:Drivers/STM32F1xx_HAL_Driver/Src/stm32f1xx_hal_dma.c ****   *      and/or other materials provided with the distribution.
  82:Drivers/STM32F1xx_HAL_Driver/Src/stm32f1xx_hal_dma.c ****   *   3. Neither the name of STMicroelectronics nor the names of its contributors
  83:Drivers/STM32F1xx_HAL_Driver/Src/stm32f1xx_hal_dma.c ****   *      may be used to endorse or promote products derived from this software
  84:Drivers/STM32F1xx_HAL_Driver/Src/stm32f1xx_hal_dma.c ****   *      without specific prior written permission.
  85:Drivers/STM32F1xx_HAL_Driver/Src/stm32f1xx_hal_dma.c ****   *
  86:Drivers/STM32F1xx_HAL_Driver/Src/stm32f1xx_hal_dma.c ****   * THIS SOFTWARE IS PROVIDED BY THE COPYRIGHT HOLDERS AND CONTRIBUTORS "AS IS"
  87:Drivers/STM32F1xx_HAL_Driver/Src/stm32f1xx_hal_dma.c ****   * AND ANY EXPRESS OR IMPLIED WARRANTIES, INCLUDING, BUT NOT LIMITED TO, THE
  88:Drivers/STM32F1xx_HAL_Driver/Src/stm32f1xx_hal_dma.c ****   * IMPLIED WARRANTIES OF MERCHANTABILITY AND FITNESS FOR A PARTICULAR PURPOSE ARE
  89:Drivers/STM32F1xx_HAL_Driver/Src/stm32f1xx_hal_dma.c ****   * DISCLAIMED. IN NO EVENT SHALL THE COPYRIGHT HOLDER OR CONTRIBUTORS BE LIABLE
ARM GAS  /tmp/ccVx4VbF.s 			page 3


  90:Drivers/STM32F1xx_HAL_Driver/Src/stm32f1xx_hal_dma.c ****   * FOR ANY DIRECT, INDIRECT, INCIDENTAL, SPECIAL, EXEMPLARY, OR CONSEQUENTIAL
  91:Drivers/STM32F1xx_HAL_Driver/Src/stm32f1xx_hal_dma.c ****   * DAMAGES (INCLUDING, BUT NOT LIMITED TO, PROCUREMENT OF SUBSTITUTE GOODS OR
  92:Drivers/STM32F1xx_HAL_Driver/Src/stm32f1xx_hal_dma.c ****   * SERVICES; LOSS OF USE, DATA, OR PROFITS; OR BUSINESS INTERRUPTION) HOWEVER
  93:Drivers/STM32F1xx_HAL_Driver/Src/stm32f1xx_hal_dma.c ****   * CAUSED AND ON ANY THEORY OF LIABILITY, WHETHER IN CONTRACT, STRICT LIABILITY,
  94:Drivers/STM32F1xx_HAL_Driver/Src/stm32f1xx_hal_dma.c ****   * OR TORT (INCLUDING NEGLIGENCE OR OTHERWISE) ARISING IN ANY WAY OUT OF THE USE
  95:Drivers/STM32F1xx_HAL_Driver/Src/stm32f1xx_hal_dma.c ****   * OF THIS SOFTWARE, EVEN IF ADVISED OF THE POSSIBILITY OF SUCH DAMAGE.
  96:Drivers/STM32F1xx_HAL_Driver/Src/stm32f1xx_hal_dma.c ****   *
  97:Drivers/STM32F1xx_HAL_Driver/Src/stm32f1xx_hal_dma.c ****   ******************************************************************************
  98:Drivers/STM32F1xx_HAL_Driver/Src/stm32f1xx_hal_dma.c ****   */
  99:Drivers/STM32F1xx_HAL_Driver/Src/stm32f1xx_hal_dma.c **** 
 100:Drivers/STM32F1xx_HAL_Driver/Src/stm32f1xx_hal_dma.c **** /* Includes ------------------------------------------------------------------*/
 101:Drivers/STM32F1xx_HAL_Driver/Src/stm32f1xx_hal_dma.c **** #include "stm32f1xx_hal.h"
 102:Drivers/STM32F1xx_HAL_Driver/Src/stm32f1xx_hal_dma.c **** 
 103:Drivers/STM32F1xx_HAL_Driver/Src/stm32f1xx_hal_dma.c **** /** @addtogroup STM32F1xx_HAL_Driver
 104:Drivers/STM32F1xx_HAL_Driver/Src/stm32f1xx_hal_dma.c ****   * @{
 105:Drivers/STM32F1xx_HAL_Driver/Src/stm32f1xx_hal_dma.c ****   */
 106:Drivers/STM32F1xx_HAL_Driver/Src/stm32f1xx_hal_dma.c **** 
 107:Drivers/STM32F1xx_HAL_Driver/Src/stm32f1xx_hal_dma.c **** /** @defgroup DMA DMA
 108:Drivers/STM32F1xx_HAL_Driver/Src/stm32f1xx_hal_dma.c ****   * @brief DMA HAL module driver
 109:Drivers/STM32F1xx_HAL_Driver/Src/stm32f1xx_hal_dma.c ****   * @{
 110:Drivers/STM32F1xx_HAL_Driver/Src/stm32f1xx_hal_dma.c ****   */
 111:Drivers/STM32F1xx_HAL_Driver/Src/stm32f1xx_hal_dma.c **** 
 112:Drivers/STM32F1xx_HAL_Driver/Src/stm32f1xx_hal_dma.c **** #ifdef HAL_DMA_MODULE_ENABLED
 113:Drivers/STM32F1xx_HAL_Driver/Src/stm32f1xx_hal_dma.c **** 
 114:Drivers/STM32F1xx_HAL_Driver/Src/stm32f1xx_hal_dma.c **** /* Private typedef -----------------------------------------------------------*/
 115:Drivers/STM32F1xx_HAL_Driver/Src/stm32f1xx_hal_dma.c **** /* Private define ------------------------------------------------------------*/
 116:Drivers/STM32F1xx_HAL_Driver/Src/stm32f1xx_hal_dma.c **** /* Private macro -------------------------------------------------------------*/
 117:Drivers/STM32F1xx_HAL_Driver/Src/stm32f1xx_hal_dma.c **** /* Private variables ---------------------------------------------------------*/
 118:Drivers/STM32F1xx_HAL_Driver/Src/stm32f1xx_hal_dma.c **** /* Private function prototypes -----------------------------------------------*/
 119:Drivers/STM32F1xx_HAL_Driver/Src/stm32f1xx_hal_dma.c **** /** @defgroup DMA_Private_Functions DMA Private Functions
 120:Drivers/STM32F1xx_HAL_Driver/Src/stm32f1xx_hal_dma.c ****   * @{
 121:Drivers/STM32F1xx_HAL_Driver/Src/stm32f1xx_hal_dma.c ****   */
 122:Drivers/STM32F1xx_HAL_Driver/Src/stm32f1xx_hal_dma.c **** static void DMA_SetConfig(DMA_HandleTypeDef *hdma, uint32_t SrcAddress, uint32_t DstAddress, uint32
 123:Drivers/STM32F1xx_HAL_Driver/Src/stm32f1xx_hal_dma.c **** /**
 124:Drivers/STM32F1xx_HAL_Driver/Src/stm32f1xx_hal_dma.c ****   * @}
 125:Drivers/STM32F1xx_HAL_Driver/Src/stm32f1xx_hal_dma.c ****   */
 126:Drivers/STM32F1xx_HAL_Driver/Src/stm32f1xx_hal_dma.c **** 
 127:Drivers/STM32F1xx_HAL_Driver/Src/stm32f1xx_hal_dma.c **** /* Exported functions ---------------------------------------------------------*/
 128:Drivers/STM32F1xx_HAL_Driver/Src/stm32f1xx_hal_dma.c **** 
 129:Drivers/STM32F1xx_HAL_Driver/Src/stm32f1xx_hal_dma.c **** /** @defgroup DMA_Exported_Functions DMA Exported Functions
 130:Drivers/STM32F1xx_HAL_Driver/Src/stm32f1xx_hal_dma.c ****   * @{
 131:Drivers/STM32F1xx_HAL_Driver/Src/stm32f1xx_hal_dma.c ****   */
 132:Drivers/STM32F1xx_HAL_Driver/Src/stm32f1xx_hal_dma.c **** 
 133:Drivers/STM32F1xx_HAL_Driver/Src/stm32f1xx_hal_dma.c **** /** @defgroup DMA_Exported_Functions_Group1 Initialization and de-initialization functions
 134:Drivers/STM32F1xx_HAL_Driver/Src/stm32f1xx_hal_dma.c ****   *  @brief   Initialization and de-initialization functions 
 135:Drivers/STM32F1xx_HAL_Driver/Src/stm32f1xx_hal_dma.c ****   *
 136:Drivers/STM32F1xx_HAL_Driver/Src/stm32f1xx_hal_dma.c **** @verbatim
 137:Drivers/STM32F1xx_HAL_Driver/Src/stm32f1xx_hal_dma.c ****  ===============================================================================
 138:Drivers/STM32F1xx_HAL_Driver/Src/stm32f1xx_hal_dma.c ****              ##### Initialization and de-initialization functions  #####
 139:Drivers/STM32F1xx_HAL_Driver/Src/stm32f1xx_hal_dma.c ****  ===============================================================================
 140:Drivers/STM32F1xx_HAL_Driver/Src/stm32f1xx_hal_dma.c ****     [..]
 141:Drivers/STM32F1xx_HAL_Driver/Src/stm32f1xx_hal_dma.c ****     This section provides functions allowing to initialize the DMA Channel source
 142:Drivers/STM32F1xx_HAL_Driver/Src/stm32f1xx_hal_dma.c ****     and destination addresses, incrementation and data sizes, transfer direction, 
 143:Drivers/STM32F1xx_HAL_Driver/Src/stm32f1xx_hal_dma.c ****     circular/normal mode selection, memory-to-memory mode selection and Channel priority value.
 144:Drivers/STM32F1xx_HAL_Driver/Src/stm32f1xx_hal_dma.c ****     [..]
 145:Drivers/STM32F1xx_HAL_Driver/Src/stm32f1xx_hal_dma.c ****     The HAL_DMA_Init() function follows the DMA configuration procedures as described in
 146:Drivers/STM32F1xx_HAL_Driver/Src/stm32f1xx_hal_dma.c ****     reference manual.  
ARM GAS  /tmp/ccVx4VbF.s 			page 4


 147:Drivers/STM32F1xx_HAL_Driver/Src/stm32f1xx_hal_dma.c **** 
 148:Drivers/STM32F1xx_HAL_Driver/Src/stm32f1xx_hal_dma.c **** @endverbatim
 149:Drivers/STM32F1xx_HAL_Driver/Src/stm32f1xx_hal_dma.c ****   * @{
 150:Drivers/STM32F1xx_HAL_Driver/Src/stm32f1xx_hal_dma.c ****   */
 151:Drivers/STM32F1xx_HAL_Driver/Src/stm32f1xx_hal_dma.c **** 
 152:Drivers/STM32F1xx_HAL_Driver/Src/stm32f1xx_hal_dma.c **** /**
 153:Drivers/STM32F1xx_HAL_Driver/Src/stm32f1xx_hal_dma.c ****   * @brief  Initialize the DMA according to the specified
 154:Drivers/STM32F1xx_HAL_Driver/Src/stm32f1xx_hal_dma.c ****   *         parameters in the DMA_InitTypeDef and initialize the associated handle.
 155:Drivers/STM32F1xx_HAL_Driver/Src/stm32f1xx_hal_dma.c ****   * @param  hdma: Pointer to a DMA_HandleTypeDef structure that contains
 156:Drivers/STM32F1xx_HAL_Driver/Src/stm32f1xx_hal_dma.c ****   *               the configuration information for the specified DMA Channel.
 157:Drivers/STM32F1xx_HAL_Driver/Src/stm32f1xx_hal_dma.c ****   * @retval HAL status
 158:Drivers/STM32F1xx_HAL_Driver/Src/stm32f1xx_hal_dma.c ****   */
 159:Drivers/STM32F1xx_HAL_Driver/Src/stm32f1xx_hal_dma.c **** HAL_StatusTypeDef HAL_DMA_Init(DMA_HandleTypeDef *hdma)
 160:Drivers/STM32F1xx_HAL_Driver/Src/stm32f1xx_hal_dma.c **** {
  27              		.loc 1 160 1
  28              		.cfi_startproc
  29              		@ args = 0, pretend = 0, frame = 16
  30              		@ frame_needed = 1, uses_anonymous_args = 0
  31              		@ link register save eliminated.
  32 0000 80B4     		push	{r7}
  33              	.LCFI0:
  34              		.cfi_def_cfa_offset 4
  35              		.cfi_offset 7, -4
  36 0002 85B0     		sub	sp, sp, #20
  37              	.LCFI1:
  38              		.cfi_def_cfa_offset 24
  39 0004 00AF     		add	r7, sp, #0
  40              	.LCFI2:
  41              		.cfi_def_cfa_register 7
  42 0006 7860     		str	r0, [r7, #4]
 161:Drivers/STM32F1xx_HAL_Driver/Src/stm32f1xx_hal_dma.c ****   uint32_t tmp = 0U;
  43              		.loc 1 161 12
  44 0008 0023     		movs	r3, #0
  45 000a FB60     		str	r3, [r7, #12]
 162:Drivers/STM32F1xx_HAL_Driver/Src/stm32f1xx_hal_dma.c **** 
 163:Drivers/STM32F1xx_HAL_Driver/Src/stm32f1xx_hal_dma.c ****   /* Check the DMA handle allocation */
 164:Drivers/STM32F1xx_HAL_Driver/Src/stm32f1xx_hal_dma.c ****   if(hdma == NULL)
  46              		.loc 1 164 5
  47 000c 7B68     		ldr	r3, [r7, #4]
  48 000e 002B     		cmp	r3, #0
  49 0010 01D1     		bne	.L2
 165:Drivers/STM32F1xx_HAL_Driver/Src/stm32f1xx_hal_dma.c ****   {
 166:Drivers/STM32F1xx_HAL_Driver/Src/stm32f1xx_hal_dma.c ****     return HAL_ERROR;
  50              		.loc 1 166 12
  51 0012 0123     		movs	r3, #1
  52 0014 59E0     		b	.L3
  53              	.L2:
 167:Drivers/STM32F1xx_HAL_Driver/Src/stm32f1xx_hal_dma.c ****   }
 168:Drivers/STM32F1xx_HAL_Driver/Src/stm32f1xx_hal_dma.c **** 
 169:Drivers/STM32F1xx_HAL_Driver/Src/stm32f1xx_hal_dma.c ****   /* Check the parameters */
 170:Drivers/STM32F1xx_HAL_Driver/Src/stm32f1xx_hal_dma.c ****   assert_param(IS_DMA_ALL_INSTANCE(hdma->Instance));
 171:Drivers/STM32F1xx_HAL_Driver/Src/stm32f1xx_hal_dma.c ****   assert_param(IS_DMA_DIRECTION(hdma->Init.Direction));
 172:Drivers/STM32F1xx_HAL_Driver/Src/stm32f1xx_hal_dma.c ****   assert_param(IS_DMA_PERIPHERAL_INC_STATE(hdma->Init.PeriphInc));
 173:Drivers/STM32F1xx_HAL_Driver/Src/stm32f1xx_hal_dma.c ****   assert_param(IS_DMA_MEMORY_INC_STATE(hdma->Init.MemInc));
 174:Drivers/STM32F1xx_HAL_Driver/Src/stm32f1xx_hal_dma.c ****   assert_param(IS_DMA_PERIPHERAL_DATA_SIZE(hdma->Init.PeriphDataAlignment));
 175:Drivers/STM32F1xx_HAL_Driver/Src/stm32f1xx_hal_dma.c ****   assert_param(IS_DMA_MEMORY_DATA_SIZE(hdma->Init.MemDataAlignment));
 176:Drivers/STM32F1xx_HAL_Driver/Src/stm32f1xx_hal_dma.c ****   assert_param(IS_DMA_MODE(hdma->Init.Mode));
ARM GAS  /tmp/ccVx4VbF.s 			page 5


 177:Drivers/STM32F1xx_HAL_Driver/Src/stm32f1xx_hal_dma.c ****   assert_param(IS_DMA_PRIORITY(hdma->Init.Priority));
 178:Drivers/STM32F1xx_HAL_Driver/Src/stm32f1xx_hal_dma.c **** 
 179:Drivers/STM32F1xx_HAL_Driver/Src/stm32f1xx_hal_dma.c **** #if defined (STM32F101xE) || defined (STM32F101xG) || defined (STM32F103xE) || defined (STM32F103xG
 180:Drivers/STM32F1xx_HAL_Driver/Src/stm32f1xx_hal_dma.c ****   /* calculation of the channel index */
 181:Drivers/STM32F1xx_HAL_Driver/Src/stm32f1xx_hal_dma.c ****   if ((uint32_t)(hdma->Instance) < (uint32_t)(DMA2_Channel1))
  54              		.loc 1 181 22
  55 0016 7B68     		ldr	r3, [r7, #4]
  56 0018 1B68     		ldr	r3, [r3]
  57              		.loc 1 181 7
  58 001a 1A46     		mov	r2, r3
  59              		.loc 1 181 6
  60 001c 2D4B     		ldr	r3, .L6
  61 001e 9A42     		cmp	r2, r3
  62 0020 0FD8     		bhi	.L4
 182:Drivers/STM32F1xx_HAL_Driver/Src/stm32f1xx_hal_dma.c ****   {
 183:Drivers/STM32F1xx_HAL_Driver/Src/stm32f1xx_hal_dma.c ****     /* DMA1 */
 184:Drivers/STM32F1xx_HAL_Driver/Src/stm32f1xx_hal_dma.c ****     hdma->ChannelIndex = (((uint32_t)hdma->Instance - (uint32_t)DMA1_Channel1) / ((uint32_t)DMA1_Ch
  63              		.loc 1 184 42
  64 0022 7B68     		ldr	r3, [r7, #4]
  65 0024 1B68     		ldr	r3, [r3]
  66              		.loc 1 184 28
  67 0026 1A46     		mov	r2, r3
  68              		.loc 1 184 53
  69 0028 2B4B     		ldr	r3, .L6+4
  70 002a 1344     		add	r3, r3, r2
  71              		.loc 1 184 80
  72 002c 2B4A     		ldr	r2, .L6+8
  73 002e A2FB0323 		umull	r2, r3, r2, r3
  74 0032 1B09     		lsrs	r3, r3, #4
  75              		.loc 1 184 135
  76 0034 9A00     		lsls	r2, r3, #2
  77              		.loc 1 184 24
  78 0036 7B68     		ldr	r3, [r7, #4]
  79 0038 1A64     		str	r2, [r3, #64]
 185:Drivers/STM32F1xx_HAL_Driver/Src/stm32f1xx_hal_dma.c ****     hdma->DmaBaseAddress = DMA1;
  80              		.loc 1 185 26
  81 003a 7B68     		ldr	r3, [r7, #4]
  82 003c 284A     		ldr	r2, .L6+12
  83 003e DA63     		str	r2, [r3, #60]
  84 0040 0EE0     		b	.L5
  85              	.L4:
 186:Drivers/STM32F1xx_HAL_Driver/Src/stm32f1xx_hal_dma.c ****   }
 187:Drivers/STM32F1xx_HAL_Driver/Src/stm32f1xx_hal_dma.c ****   else 
 188:Drivers/STM32F1xx_HAL_Driver/Src/stm32f1xx_hal_dma.c ****   {
 189:Drivers/STM32F1xx_HAL_Driver/Src/stm32f1xx_hal_dma.c ****     /* DMA2 */
 190:Drivers/STM32F1xx_HAL_Driver/Src/stm32f1xx_hal_dma.c ****     hdma->ChannelIndex = (((uint32_t)hdma->Instance - (uint32_t)DMA2_Channel1) / ((uint32_t)DMA2_Ch
  86              		.loc 1 190 42
  87 0042 7B68     		ldr	r3, [r7, #4]
  88 0044 1B68     		ldr	r3, [r3]
  89              		.loc 1 190 28
  90 0046 1A46     		mov	r2, r3
  91              		.loc 1 190 53
  92 0048 264B     		ldr	r3, .L6+16
  93 004a 1344     		add	r3, r3, r2
  94              		.loc 1 190 80
  95 004c 234A     		ldr	r2, .L6+8
  96 004e A2FB0323 		umull	r2, r3, r2, r3
ARM GAS  /tmp/ccVx4VbF.s 			page 6


  97 0052 1B09     		lsrs	r3, r3, #4
  98              		.loc 1 190 135
  99 0054 9A00     		lsls	r2, r3, #2
 100              		.loc 1 190 24
 101 0056 7B68     		ldr	r3, [r7, #4]
 102 0058 1A64     		str	r2, [r3, #64]
 191:Drivers/STM32F1xx_HAL_Driver/Src/stm32f1xx_hal_dma.c ****     hdma->DmaBaseAddress = DMA2;
 103              		.loc 1 191 26
 104 005a 7B68     		ldr	r3, [r7, #4]
 105 005c 224A     		ldr	r2, .L6+20
 106 005e DA63     		str	r2, [r3, #60]
 107              	.L5:
 192:Drivers/STM32F1xx_HAL_Driver/Src/stm32f1xx_hal_dma.c ****   }
 193:Drivers/STM32F1xx_HAL_Driver/Src/stm32f1xx_hal_dma.c **** #else
 194:Drivers/STM32F1xx_HAL_Driver/Src/stm32f1xx_hal_dma.c ****   /* DMA1 */
 195:Drivers/STM32F1xx_HAL_Driver/Src/stm32f1xx_hal_dma.c ****   hdma->ChannelIndex = (((uint32_t)hdma->Instance - (uint32_t)DMA1_Channel1) / ((uint32_t)DMA1_Chan
 196:Drivers/STM32F1xx_HAL_Driver/Src/stm32f1xx_hal_dma.c ****   hdma->DmaBaseAddress = DMA1;
 197:Drivers/STM32F1xx_HAL_Driver/Src/stm32f1xx_hal_dma.c **** #endif /* STM32F101xE || STM32F101xG || STM32F103xE || STM32F103xG || STM32F100xE || STM32F105xC ||
 198:Drivers/STM32F1xx_HAL_Driver/Src/stm32f1xx_hal_dma.c **** 
 199:Drivers/STM32F1xx_HAL_Driver/Src/stm32f1xx_hal_dma.c ****   /* Change DMA peripheral state */
 200:Drivers/STM32F1xx_HAL_Driver/Src/stm32f1xx_hal_dma.c ****   hdma->State = HAL_DMA_STATE_BUSY;
 108              		.loc 1 200 15
 109 0060 7B68     		ldr	r3, [r7, #4]
 110 0062 0222     		movs	r2, #2
 111 0064 83F82120 		strb	r2, [r3, #33]
 201:Drivers/STM32F1xx_HAL_Driver/Src/stm32f1xx_hal_dma.c **** 
 202:Drivers/STM32F1xx_HAL_Driver/Src/stm32f1xx_hal_dma.c ****   /* Get the CR register value */
 203:Drivers/STM32F1xx_HAL_Driver/Src/stm32f1xx_hal_dma.c ****   tmp = hdma->Instance->CCR;
 112              		.loc 1 203 13
 113 0068 7B68     		ldr	r3, [r7, #4]
 114 006a 1B68     		ldr	r3, [r3]
 115              		.loc 1 203 7
 116 006c 1B68     		ldr	r3, [r3]
 117 006e FB60     		str	r3, [r7, #12]
 204:Drivers/STM32F1xx_HAL_Driver/Src/stm32f1xx_hal_dma.c **** 
 205:Drivers/STM32F1xx_HAL_Driver/Src/stm32f1xx_hal_dma.c ****   /* Clear PL, MSIZE, PSIZE, MINC, PINC, CIRC and DIR bits */
 206:Drivers/STM32F1xx_HAL_Driver/Src/stm32f1xx_hal_dma.c ****   tmp &= ((uint32_t)~(DMA_CCR_PL    | DMA_CCR_MSIZE  | DMA_CCR_PSIZE  | \
 118              		.loc 1 206 7
 119 0070 FB68     		ldr	r3, [r7, #12]
 120 0072 23F47F53 		bic	r3, r3, #16320
 121 0076 23F03003 		bic	r3, r3, #48
 122 007a FB60     		str	r3, [r7, #12]
 207:Drivers/STM32F1xx_HAL_Driver/Src/stm32f1xx_hal_dma.c ****                       DMA_CCR_MINC  | DMA_CCR_PINC   | DMA_CCR_CIRC   | \
 208:Drivers/STM32F1xx_HAL_Driver/Src/stm32f1xx_hal_dma.c ****                       DMA_CCR_DIR));
 209:Drivers/STM32F1xx_HAL_Driver/Src/stm32f1xx_hal_dma.c **** 
 210:Drivers/STM32F1xx_HAL_Driver/Src/stm32f1xx_hal_dma.c ****   /* Prepare the DMA Channel configuration */
 211:Drivers/STM32F1xx_HAL_Driver/Src/stm32f1xx_hal_dma.c ****   tmp |=  hdma->Init.Direction        |
 123              		.loc 1 211 21
 124 007c 7B68     		ldr	r3, [r7, #4]
 125 007e 5A68     		ldr	r2, [r3, #4]
 212:Drivers/STM32F1xx_HAL_Driver/Src/stm32f1xx_hal_dma.c ****           hdma->Init.PeriphInc           | hdma->Init.MemInc           |
 126              		.loc 1 212 21
 127 0080 7B68     		ldr	r3, [r7, #4]
 128 0082 9B68     		ldr	r3, [r3, #8]
 211:Drivers/STM32F1xx_HAL_Driver/Src/stm32f1xx_hal_dma.c ****           hdma->Init.PeriphInc           | hdma->Init.MemInc           |
 129              		.loc 1 211 39
 130 0084 1A43     		orrs	r2, r2, r3
ARM GAS  /tmp/ccVx4VbF.s 			page 7


 131              		.loc 1 212 54
 132 0086 7B68     		ldr	r3, [r7, #4]
 133 0088 DB68     		ldr	r3, [r3, #12]
 134              		.loc 1 212 42
 135 008a 1A43     		orrs	r2, r2, r3
 213:Drivers/STM32F1xx_HAL_Driver/Src/stm32f1xx_hal_dma.c ****           hdma->Init.PeriphDataAlignment | hdma->Init.MemDataAlignment |
 136              		.loc 1 213 21
 137 008c 7B68     		ldr	r3, [r7, #4]
 138 008e 1B69     		ldr	r3, [r3, #16]
 212:Drivers/STM32F1xx_HAL_Driver/Src/stm32f1xx_hal_dma.c ****           hdma->Init.PeriphInc           | hdma->Init.MemInc           |
 139              		.loc 1 212 72
 140 0090 1A43     		orrs	r2, r2, r3
 141              		.loc 1 213 54
 142 0092 7B68     		ldr	r3, [r7, #4]
 143 0094 5B69     		ldr	r3, [r3, #20]
 144              		.loc 1 213 42
 145 0096 1A43     		orrs	r2, r2, r3
 214:Drivers/STM32F1xx_HAL_Driver/Src/stm32f1xx_hal_dma.c ****           hdma->Init.Mode                | hdma->Init.Priority;
 146              		.loc 1 214 21
 147 0098 7B68     		ldr	r3, [r7, #4]
 148 009a 9B69     		ldr	r3, [r3, #24]
 213:Drivers/STM32F1xx_HAL_Driver/Src/stm32f1xx_hal_dma.c ****           hdma->Init.PeriphDataAlignment | hdma->Init.MemDataAlignment |
 149              		.loc 1 213 72
 150 009c 1A43     		orrs	r2, r2, r3
 151              		.loc 1 214 54
 152 009e 7B68     		ldr	r3, [r7, #4]
 153 00a0 DB69     		ldr	r3, [r3, #28]
 154              		.loc 1 214 42
 155 00a2 1343     		orrs	r3, r3, r2
 211:Drivers/STM32F1xx_HAL_Driver/Src/stm32f1xx_hal_dma.c ****           hdma->Init.PeriphInc           | hdma->Init.MemInc           |
 156              		.loc 1 211 7
 157 00a4 FA68     		ldr	r2, [r7, #12]
 158 00a6 1343     		orrs	r3, r3, r2
 159 00a8 FB60     		str	r3, [r7, #12]
 215:Drivers/STM32F1xx_HAL_Driver/Src/stm32f1xx_hal_dma.c **** 
 216:Drivers/STM32F1xx_HAL_Driver/Src/stm32f1xx_hal_dma.c ****   /* Write to DMA Channel CR register */
 217:Drivers/STM32F1xx_HAL_Driver/Src/stm32f1xx_hal_dma.c ****   hdma->Instance->CCR = tmp;
 160              		.loc 1 217 7
 161 00aa 7B68     		ldr	r3, [r7, #4]
 162 00ac 1B68     		ldr	r3, [r3]
 163              		.loc 1 217 23
 164 00ae FA68     		ldr	r2, [r7, #12]
 165 00b0 1A60     		str	r2, [r3]
 218:Drivers/STM32F1xx_HAL_Driver/Src/stm32f1xx_hal_dma.c **** 
 219:Drivers/STM32F1xx_HAL_Driver/Src/stm32f1xx_hal_dma.c ****   /* Initialise the error code */
 220:Drivers/STM32F1xx_HAL_Driver/Src/stm32f1xx_hal_dma.c ****   hdma->ErrorCode = HAL_DMA_ERROR_NONE;
 166              		.loc 1 220 19
 167 00b2 7B68     		ldr	r3, [r7, #4]
 168 00b4 0022     		movs	r2, #0
 169 00b6 9A63     		str	r2, [r3, #56]
 221:Drivers/STM32F1xx_HAL_Driver/Src/stm32f1xx_hal_dma.c **** 
 222:Drivers/STM32F1xx_HAL_Driver/Src/stm32f1xx_hal_dma.c ****   /* Initialize the DMA state*/
 223:Drivers/STM32F1xx_HAL_Driver/Src/stm32f1xx_hal_dma.c ****   hdma->State = HAL_DMA_STATE_READY;
 170              		.loc 1 223 15
 171 00b8 7B68     		ldr	r3, [r7, #4]
 172 00ba 0122     		movs	r2, #1
 173 00bc 83F82120 		strb	r2, [r3, #33]
ARM GAS  /tmp/ccVx4VbF.s 			page 8


 224:Drivers/STM32F1xx_HAL_Driver/Src/stm32f1xx_hal_dma.c ****   /* Allocate lock resource and initialize it */
 225:Drivers/STM32F1xx_HAL_Driver/Src/stm32f1xx_hal_dma.c ****   hdma->Lock = HAL_UNLOCKED;
 174              		.loc 1 225 14
 175 00c0 7B68     		ldr	r3, [r7, #4]
 176 00c2 0022     		movs	r2, #0
 177 00c4 83F82020 		strb	r2, [r3, #32]
 226:Drivers/STM32F1xx_HAL_Driver/Src/stm32f1xx_hal_dma.c **** 
 227:Drivers/STM32F1xx_HAL_Driver/Src/stm32f1xx_hal_dma.c ****   return HAL_OK;
 178              		.loc 1 227 10
 179 00c8 0023     		movs	r3, #0
 180              	.L3:
 228:Drivers/STM32F1xx_HAL_Driver/Src/stm32f1xx_hal_dma.c **** }
 181              		.loc 1 228 1
 182 00ca 1846     		mov	r0, r3
 183 00cc 1437     		adds	r7, r7, #20
 184              	.LCFI3:
 185              		.cfi_def_cfa_offset 4
 186 00ce BD46     		mov	sp, r7
 187              	.LCFI4:
 188              		.cfi_def_cfa_register 13
 189              		@ sp needed
 190 00d0 80BC     		pop	{r7}
 191              	.LCFI5:
 192              		.cfi_restore 7
 193              		.cfi_def_cfa_offset 0
 194 00d2 7047     		bx	lr
 195              	.L7:
 196              		.align	2
 197              	.L6:
 198 00d4 07040240 		.word	1073873927
 199 00d8 F8FFFDBF 		.word	-1073872904
 200 00dc CDCCCCCC 		.word	-858993459
 201 00e0 00000240 		.word	1073872896
 202 00e4 F8FBFDBF 		.word	-1073873928
 203 00e8 00040240 		.word	1073873920
 204              		.cfi_endproc
 205              	.LFE66:
 207              		.section	.text.HAL_DMA_DeInit,"ax",%progbits
 208              		.align	1
 209              		.global	HAL_DMA_DeInit
 210              		.syntax unified
 211              		.thumb
 212              		.thumb_func
 213              		.fpu softvfp
 215              	HAL_DMA_DeInit:
 216              	.LFB67:
 229:Drivers/STM32F1xx_HAL_Driver/Src/stm32f1xx_hal_dma.c **** 
 230:Drivers/STM32F1xx_HAL_Driver/Src/stm32f1xx_hal_dma.c **** /**
 231:Drivers/STM32F1xx_HAL_Driver/Src/stm32f1xx_hal_dma.c ****   * @brief  DeInitialize the DMA peripheral.
 232:Drivers/STM32F1xx_HAL_Driver/Src/stm32f1xx_hal_dma.c ****   * @param  hdma: pointer to a DMA_HandleTypeDef structure that contains
 233:Drivers/STM32F1xx_HAL_Driver/Src/stm32f1xx_hal_dma.c ****   *               the configuration information for the specified DMA Channel.
 234:Drivers/STM32F1xx_HAL_Driver/Src/stm32f1xx_hal_dma.c ****   * @retval HAL status
 235:Drivers/STM32F1xx_HAL_Driver/Src/stm32f1xx_hal_dma.c ****   */
 236:Drivers/STM32F1xx_HAL_Driver/Src/stm32f1xx_hal_dma.c **** HAL_StatusTypeDef HAL_DMA_DeInit(DMA_HandleTypeDef *hdma)
 237:Drivers/STM32F1xx_HAL_Driver/Src/stm32f1xx_hal_dma.c **** {
 217              		.loc 1 237 1
 218              		.cfi_startproc
ARM GAS  /tmp/ccVx4VbF.s 			page 9


 219              		@ args = 0, pretend = 0, frame = 8
 220              		@ frame_needed = 1, uses_anonymous_args = 0
 221              		@ link register save eliminated.
 222 0000 80B4     		push	{r7}
 223              	.LCFI6:
 224              		.cfi_def_cfa_offset 4
 225              		.cfi_offset 7, -4
 226 0002 83B0     		sub	sp, sp, #12
 227              	.LCFI7:
 228              		.cfi_def_cfa_offset 16
 229 0004 00AF     		add	r7, sp, #0
 230              	.LCFI8:
 231              		.cfi_def_cfa_register 7
 232 0006 7860     		str	r0, [r7, #4]
 238:Drivers/STM32F1xx_HAL_Driver/Src/stm32f1xx_hal_dma.c ****   /* Check the DMA handle allocation */
 239:Drivers/STM32F1xx_HAL_Driver/Src/stm32f1xx_hal_dma.c ****   if(hdma == NULL)
 233              		.loc 1 239 5
 234 0008 7B68     		ldr	r3, [r7, #4]
 235 000a 002B     		cmp	r3, #0
 236 000c 01D1     		bne	.L9
 240:Drivers/STM32F1xx_HAL_Driver/Src/stm32f1xx_hal_dma.c ****   {
 241:Drivers/STM32F1xx_HAL_Driver/Src/stm32f1xx_hal_dma.c ****     return HAL_ERROR;
 237              		.loc 1 241 12
 238 000e 0123     		movs	r3, #1
 239 0010 5CE0     		b	.L10
 240              	.L9:
 242:Drivers/STM32F1xx_HAL_Driver/Src/stm32f1xx_hal_dma.c ****   }
 243:Drivers/STM32F1xx_HAL_Driver/Src/stm32f1xx_hal_dma.c **** 
 244:Drivers/STM32F1xx_HAL_Driver/Src/stm32f1xx_hal_dma.c ****   /* Check the parameters */
 245:Drivers/STM32F1xx_HAL_Driver/Src/stm32f1xx_hal_dma.c ****   assert_param(IS_DMA_ALL_INSTANCE(hdma->Instance));
 246:Drivers/STM32F1xx_HAL_Driver/Src/stm32f1xx_hal_dma.c **** 
 247:Drivers/STM32F1xx_HAL_Driver/Src/stm32f1xx_hal_dma.c ****   /* Disable the selected DMA Channelx */
 248:Drivers/STM32F1xx_HAL_Driver/Src/stm32f1xx_hal_dma.c ****   __HAL_DMA_DISABLE(hdma);
 241              		.loc 1 248 3
 242 0012 7B68     		ldr	r3, [r7, #4]
 243 0014 1B68     		ldr	r3, [r3]
 244 0016 1A68     		ldr	r2, [r3]
 245 0018 7B68     		ldr	r3, [r7, #4]
 246 001a 1B68     		ldr	r3, [r3]
 247 001c 22F00102 		bic	r2, r2, #1
 248 0020 1A60     		str	r2, [r3]
 249:Drivers/STM32F1xx_HAL_Driver/Src/stm32f1xx_hal_dma.c **** 
 250:Drivers/STM32F1xx_HAL_Driver/Src/stm32f1xx_hal_dma.c ****   /* Reset DMA Channel control register */
 251:Drivers/STM32F1xx_HAL_Driver/Src/stm32f1xx_hal_dma.c ****   hdma->Instance->CCR  = 0U;
 249              		.loc 1 251 7
 250 0022 7B68     		ldr	r3, [r7, #4]
 251 0024 1B68     		ldr	r3, [r3]
 252              		.loc 1 251 24
 253 0026 0022     		movs	r2, #0
 254 0028 1A60     		str	r2, [r3]
 252:Drivers/STM32F1xx_HAL_Driver/Src/stm32f1xx_hal_dma.c **** 
 253:Drivers/STM32F1xx_HAL_Driver/Src/stm32f1xx_hal_dma.c ****   /* Reset DMA Channel Number of Data to Transfer register */
 254:Drivers/STM32F1xx_HAL_Driver/Src/stm32f1xx_hal_dma.c ****   hdma->Instance->CNDTR = 0U;
 255              		.loc 1 254 7
 256 002a 7B68     		ldr	r3, [r7, #4]
 257 002c 1B68     		ldr	r3, [r3]
 258              		.loc 1 254 25
ARM GAS  /tmp/ccVx4VbF.s 			page 10


 259 002e 0022     		movs	r2, #0
 260 0030 5A60     		str	r2, [r3, #4]
 255:Drivers/STM32F1xx_HAL_Driver/Src/stm32f1xx_hal_dma.c **** 
 256:Drivers/STM32F1xx_HAL_Driver/Src/stm32f1xx_hal_dma.c ****   /* Reset DMA Channel peripheral address register */
 257:Drivers/STM32F1xx_HAL_Driver/Src/stm32f1xx_hal_dma.c ****   hdma->Instance->CPAR  = 0U;
 261              		.loc 1 257 7
 262 0032 7B68     		ldr	r3, [r7, #4]
 263 0034 1B68     		ldr	r3, [r3]
 264              		.loc 1 257 25
 265 0036 0022     		movs	r2, #0
 266 0038 9A60     		str	r2, [r3, #8]
 258:Drivers/STM32F1xx_HAL_Driver/Src/stm32f1xx_hal_dma.c **** 
 259:Drivers/STM32F1xx_HAL_Driver/Src/stm32f1xx_hal_dma.c ****   /* Reset DMA Channel memory address register */
 260:Drivers/STM32F1xx_HAL_Driver/Src/stm32f1xx_hal_dma.c ****   hdma->Instance->CMAR = 0U;
 267              		.loc 1 260 7
 268 003a 7B68     		ldr	r3, [r7, #4]
 269 003c 1B68     		ldr	r3, [r3]
 270              		.loc 1 260 24
 271 003e 0022     		movs	r2, #0
 272 0040 DA60     		str	r2, [r3, #12]
 261:Drivers/STM32F1xx_HAL_Driver/Src/stm32f1xx_hal_dma.c **** 
 262:Drivers/STM32F1xx_HAL_Driver/Src/stm32f1xx_hal_dma.c **** #if defined (STM32F101xE) || defined (STM32F101xG) || defined (STM32F103xE) || defined (STM32F103xG
 263:Drivers/STM32F1xx_HAL_Driver/Src/stm32f1xx_hal_dma.c ****   /* calculation of the channel index */
 264:Drivers/STM32F1xx_HAL_Driver/Src/stm32f1xx_hal_dma.c ****   if ((uint32_t)(hdma->Instance) < (uint32_t)(DMA2_Channel1))
 273              		.loc 1 264 22
 274 0042 7B68     		ldr	r3, [r7, #4]
 275 0044 1B68     		ldr	r3, [r3]
 276              		.loc 1 264 7
 277 0046 1A46     		mov	r2, r3
 278              		.loc 1 264 6
 279 0048 234B     		ldr	r3, .L13
 280 004a 9A42     		cmp	r2, r3
 281 004c 0FD8     		bhi	.L11
 265:Drivers/STM32F1xx_HAL_Driver/Src/stm32f1xx_hal_dma.c ****   {
 266:Drivers/STM32F1xx_HAL_Driver/Src/stm32f1xx_hal_dma.c ****     /* DMA1 */
 267:Drivers/STM32F1xx_HAL_Driver/Src/stm32f1xx_hal_dma.c ****     hdma->ChannelIndex = (((uint32_t)hdma->Instance - (uint32_t)DMA1_Channel1) / ((uint32_t)DMA1_Ch
 282              		.loc 1 267 42
 283 004e 7B68     		ldr	r3, [r7, #4]
 284 0050 1B68     		ldr	r3, [r3]
 285              		.loc 1 267 28
 286 0052 1A46     		mov	r2, r3
 287              		.loc 1 267 53
 288 0054 214B     		ldr	r3, .L13+4
 289 0056 1344     		add	r3, r3, r2
 290              		.loc 1 267 80
 291 0058 214A     		ldr	r2, .L13+8
 292 005a A2FB0323 		umull	r2, r3, r2, r3
 293 005e 1B09     		lsrs	r3, r3, #4
 294              		.loc 1 267 135
 295 0060 9A00     		lsls	r2, r3, #2
 296              		.loc 1 267 24
 297 0062 7B68     		ldr	r3, [r7, #4]
 298 0064 1A64     		str	r2, [r3, #64]
 268:Drivers/STM32F1xx_HAL_Driver/Src/stm32f1xx_hal_dma.c ****     hdma->DmaBaseAddress = DMA1;
 299              		.loc 1 268 26
 300 0066 7B68     		ldr	r3, [r7, #4]
 301 0068 1E4A     		ldr	r2, .L13+12
ARM GAS  /tmp/ccVx4VbF.s 			page 11


 302 006a DA63     		str	r2, [r3, #60]
 303 006c 0EE0     		b	.L12
 304              	.L11:
 269:Drivers/STM32F1xx_HAL_Driver/Src/stm32f1xx_hal_dma.c ****   }
 270:Drivers/STM32F1xx_HAL_Driver/Src/stm32f1xx_hal_dma.c ****   else
 271:Drivers/STM32F1xx_HAL_Driver/Src/stm32f1xx_hal_dma.c ****   {
 272:Drivers/STM32F1xx_HAL_Driver/Src/stm32f1xx_hal_dma.c ****     /* DMA2 */
 273:Drivers/STM32F1xx_HAL_Driver/Src/stm32f1xx_hal_dma.c ****     hdma->ChannelIndex = (((uint32_t)hdma->Instance - (uint32_t)DMA2_Channel1) / ((uint32_t)DMA2_Ch
 305              		.loc 1 273 42
 306 006e 7B68     		ldr	r3, [r7, #4]
 307 0070 1B68     		ldr	r3, [r3]
 308              		.loc 1 273 28
 309 0072 1A46     		mov	r2, r3
 310              		.loc 1 273 53
 311 0074 1C4B     		ldr	r3, .L13+16
 312 0076 1344     		add	r3, r3, r2
 313              		.loc 1 273 80
 314 0078 194A     		ldr	r2, .L13+8
 315 007a A2FB0323 		umull	r2, r3, r2, r3
 316 007e 1B09     		lsrs	r3, r3, #4
 317              		.loc 1 273 135
 318 0080 9A00     		lsls	r2, r3, #2
 319              		.loc 1 273 24
 320 0082 7B68     		ldr	r3, [r7, #4]
 321 0084 1A64     		str	r2, [r3, #64]
 274:Drivers/STM32F1xx_HAL_Driver/Src/stm32f1xx_hal_dma.c ****     hdma->DmaBaseAddress = DMA2;
 322              		.loc 1 274 26
 323 0086 7B68     		ldr	r3, [r7, #4]
 324 0088 184A     		ldr	r2, .L13+20
 325 008a DA63     		str	r2, [r3, #60]
 326              	.L12:
 275:Drivers/STM32F1xx_HAL_Driver/Src/stm32f1xx_hal_dma.c ****   }
 276:Drivers/STM32F1xx_HAL_Driver/Src/stm32f1xx_hal_dma.c **** #else
 277:Drivers/STM32F1xx_HAL_Driver/Src/stm32f1xx_hal_dma.c ****   /* DMA1 */
 278:Drivers/STM32F1xx_HAL_Driver/Src/stm32f1xx_hal_dma.c ****   hdma->ChannelIndex = (((uint32_t)hdma->Instance - (uint32_t)DMA1_Channel1) / ((uint32_t)DMA1_Chan
 279:Drivers/STM32F1xx_HAL_Driver/Src/stm32f1xx_hal_dma.c ****   hdma->DmaBaseAddress = DMA1;
 280:Drivers/STM32F1xx_HAL_Driver/Src/stm32f1xx_hal_dma.c **** #endif /* STM32F101xE || STM32F101xG || STM32F103xE || STM32F103xG || STM32F100xE || STM32F105xC ||
 281:Drivers/STM32F1xx_HAL_Driver/Src/stm32f1xx_hal_dma.c **** 
 282:Drivers/STM32F1xx_HAL_Driver/Src/stm32f1xx_hal_dma.c ****   /* Clear all flags */
 283:Drivers/STM32F1xx_HAL_Driver/Src/stm32f1xx_hal_dma.c ****   hdma->DmaBaseAddress->IFCR = (DMA_ISR_GIF1 << (hdma->ChannelIndex));
 327              		.loc 1 283 54
 328 008c 7B68     		ldr	r3, [r7, #4]
 329 008e 1A6C     		ldr	r2, [r3, #64]
 330              		.loc 1 283 7
 331 0090 7B68     		ldr	r3, [r7, #4]
 332 0092 DB6B     		ldr	r3, [r3, #60]
 333              		.loc 1 283 46
 334 0094 0121     		movs	r1, #1
 335 0096 01FA02F2 		lsl	r2, r1, r2
 336              		.loc 1 283 30
 337 009a 5A60     		str	r2, [r3, #4]
 284:Drivers/STM32F1xx_HAL_Driver/Src/stm32f1xx_hal_dma.c **** 
 285:Drivers/STM32F1xx_HAL_Driver/Src/stm32f1xx_hal_dma.c ****   /* Clean all callbacks */
 286:Drivers/STM32F1xx_HAL_Driver/Src/stm32f1xx_hal_dma.c ****   hdma->XferCpltCallback = NULL;
 338              		.loc 1 286 26
 339 009c 7B68     		ldr	r3, [r7, #4]
 340 009e 0022     		movs	r2, #0
ARM GAS  /tmp/ccVx4VbF.s 			page 12


 341 00a0 9A62     		str	r2, [r3, #40]
 287:Drivers/STM32F1xx_HAL_Driver/Src/stm32f1xx_hal_dma.c ****   hdma->XferHalfCpltCallback = NULL;
 342              		.loc 1 287 30
 343 00a2 7B68     		ldr	r3, [r7, #4]
 344 00a4 0022     		movs	r2, #0
 345 00a6 DA62     		str	r2, [r3, #44]
 288:Drivers/STM32F1xx_HAL_Driver/Src/stm32f1xx_hal_dma.c ****   hdma->XferErrorCallback = NULL;
 346              		.loc 1 288 27
 347 00a8 7B68     		ldr	r3, [r7, #4]
 348 00aa 0022     		movs	r2, #0
 349 00ac 1A63     		str	r2, [r3, #48]
 289:Drivers/STM32F1xx_HAL_Driver/Src/stm32f1xx_hal_dma.c ****   hdma->XferAbortCallback = NULL;
 350              		.loc 1 289 27
 351 00ae 7B68     		ldr	r3, [r7, #4]
 352 00b0 0022     		movs	r2, #0
 353 00b2 5A63     		str	r2, [r3, #52]
 290:Drivers/STM32F1xx_HAL_Driver/Src/stm32f1xx_hal_dma.c **** 
 291:Drivers/STM32F1xx_HAL_Driver/Src/stm32f1xx_hal_dma.c ****   /* Reset the error code */
 292:Drivers/STM32F1xx_HAL_Driver/Src/stm32f1xx_hal_dma.c ****   hdma->ErrorCode = HAL_DMA_ERROR_NONE;
 354              		.loc 1 292 19
 355 00b4 7B68     		ldr	r3, [r7, #4]
 356 00b6 0022     		movs	r2, #0
 357 00b8 9A63     		str	r2, [r3, #56]
 293:Drivers/STM32F1xx_HAL_Driver/Src/stm32f1xx_hal_dma.c **** 
 294:Drivers/STM32F1xx_HAL_Driver/Src/stm32f1xx_hal_dma.c ****   /* Reset the DMA state */
 295:Drivers/STM32F1xx_HAL_Driver/Src/stm32f1xx_hal_dma.c ****   hdma->State = HAL_DMA_STATE_RESET;
 358              		.loc 1 295 15
 359 00ba 7B68     		ldr	r3, [r7, #4]
 360 00bc 0022     		movs	r2, #0
 361 00be 83F82120 		strb	r2, [r3, #33]
 296:Drivers/STM32F1xx_HAL_Driver/Src/stm32f1xx_hal_dma.c **** 
 297:Drivers/STM32F1xx_HAL_Driver/Src/stm32f1xx_hal_dma.c ****   /* Release Lock */
 298:Drivers/STM32F1xx_HAL_Driver/Src/stm32f1xx_hal_dma.c ****   __HAL_UNLOCK(hdma);
 362              		.loc 1 298 3
 363 00c2 7B68     		ldr	r3, [r7, #4]
 364 00c4 0022     		movs	r2, #0
 365 00c6 83F82020 		strb	r2, [r3, #32]
 299:Drivers/STM32F1xx_HAL_Driver/Src/stm32f1xx_hal_dma.c **** 
 300:Drivers/STM32F1xx_HAL_Driver/Src/stm32f1xx_hal_dma.c ****   return HAL_OK;
 366              		.loc 1 300 10
 367 00ca 0023     		movs	r3, #0
 368              	.L10:
 301:Drivers/STM32F1xx_HAL_Driver/Src/stm32f1xx_hal_dma.c **** }
 369              		.loc 1 301 1
 370 00cc 1846     		mov	r0, r3
 371 00ce 0C37     		adds	r7, r7, #12
 372              	.LCFI9:
 373              		.cfi_def_cfa_offset 4
 374 00d0 BD46     		mov	sp, r7
 375              	.LCFI10:
 376              		.cfi_def_cfa_register 13
 377              		@ sp needed
 378 00d2 80BC     		pop	{r7}
 379              	.LCFI11:
 380              		.cfi_restore 7
 381              		.cfi_def_cfa_offset 0
 382 00d4 7047     		bx	lr
ARM GAS  /tmp/ccVx4VbF.s 			page 13


 383              	.L14:
 384 00d6 00BF     		.align	2
 385              	.L13:
 386 00d8 07040240 		.word	1073873927
 387 00dc F8FFFDBF 		.word	-1073872904
 388 00e0 CDCCCCCC 		.word	-858993459
 389 00e4 00000240 		.word	1073872896
 390 00e8 F8FBFDBF 		.word	-1073873928
 391 00ec 00040240 		.word	1073873920
 392              		.cfi_endproc
 393              	.LFE67:
 395              		.section	.text.HAL_DMA_Start,"ax",%progbits
 396              		.align	1
 397              		.global	HAL_DMA_Start
 398              		.syntax unified
 399              		.thumb
 400              		.thumb_func
 401              		.fpu softvfp
 403              	HAL_DMA_Start:
 404              	.LFB68:
 302:Drivers/STM32F1xx_HAL_Driver/Src/stm32f1xx_hal_dma.c **** 
 303:Drivers/STM32F1xx_HAL_Driver/Src/stm32f1xx_hal_dma.c **** /**
 304:Drivers/STM32F1xx_HAL_Driver/Src/stm32f1xx_hal_dma.c ****   * @}
 305:Drivers/STM32F1xx_HAL_Driver/Src/stm32f1xx_hal_dma.c ****   */
 306:Drivers/STM32F1xx_HAL_Driver/Src/stm32f1xx_hal_dma.c **** 
 307:Drivers/STM32F1xx_HAL_Driver/Src/stm32f1xx_hal_dma.c **** /** @defgroup DMA_Exported_Functions_Group2 Input and Output operation functions
 308:Drivers/STM32F1xx_HAL_Driver/Src/stm32f1xx_hal_dma.c ****   *  @brief   Input and Output operation functions
 309:Drivers/STM32F1xx_HAL_Driver/Src/stm32f1xx_hal_dma.c ****   *
 310:Drivers/STM32F1xx_HAL_Driver/Src/stm32f1xx_hal_dma.c **** @verbatim
 311:Drivers/STM32F1xx_HAL_Driver/Src/stm32f1xx_hal_dma.c ****  ===============================================================================
 312:Drivers/STM32F1xx_HAL_Driver/Src/stm32f1xx_hal_dma.c ****                       #####  IO operation functions  #####
 313:Drivers/STM32F1xx_HAL_Driver/Src/stm32f1xx_hal_dma.c ****  ===============================================================================
 314:Drivers/STM32F1xx_HAL_Driver/Src/stm32f1xx_hal_dma.c ****     [..]  This section provides functions allowing to:
 315:Drivers/STM32F1xx_HAL_Driver/Src/stm32f1xx_hal_dma.c ****       (+) Configure the source, destination address and data length and Start DMA transfer
 316:Drivers/STM32F1xx_HAL_Driver/Src/stm32f1xx_hal_dma.c ****       (+) Configure the source, destination address and data length and
 317:Drivers/STM32F1xx_HAL_Driver/Src/stm32f1xx_hal_dma.c ****           Start DMA transfer with interrupt
 318:Drivers/STM32F1xx_HAL_Driver/Src/stm32f1xx_hal_dma.c ****       (+) Abort DMA transfer
 319:Drivers/STM32F1xx_HAL_Driver/Src/stm32f1xx_hal_dma.c ****       (+) Poll for transfer complete
 320:Drivers/STM32F1xx_HAL_Driver/Src/stm32f1xx_hal_dma.c ****       (+) Handle DMA interrupt request
 321:Drivers/STM32F1xx_HAL_Driver/Src/stm32f1xx_hal_dma.c **** 
 322:Drivers/STM32F1xx_HAL_Driver/Src/stm32f1xx_hal_dma.c **** @endverbatim
 323:Drivers/STM32F1xx_HAL_Driver/Src/stm32f1xx_hal_dma.c ****   * @{
 324:Drivers/STM32F1xx_HAL_Driver/Src/stm32f1xx_hal_dma.c ****   */
 325:Drivers/STM32F1xx_HAL_Driver/Src/stm32f1xx_hal_dma.c **** 
 326:Drivers/STM32F1xx_HAL_Driver/Src/stm32f1xx_hal_dma.c **** /**
 327:Drivers/STM32F1xx_HAL_Driver/Src/stm32f1xx_hal_dma.c ****   * @brief  Start the DMA Transfer.
 328:Drivers/STM32F1xx_HAL_Driver/Src/stm32f1xx_hal_dma.c ****   * @param  hdma: pointer to a DMA_HandleTypeDef structure that contains
 329:Drivers/STM32F1xx_HAL_Driver/Src/stm32f1xx_hal_dma.c ****   *               the configuration information for the specified DMA Channel.
 330:Drivers/STM32F1xx_HAL_Driver/Src/stm32f1xx_hal_dma.c ****   * @param  SrcAddress: The source memory Buffer address
 331:Drivers/STM32F1xx_HAL_Driver/Src/stm32f1xx_hal_dma.c ****   * @param  DstAddress: The destination memory Buffer address
 332:Drivers/STM32F1xx_HAL_Driver/Src/stm32f1xx_hal_dma.c ****   * @param  DataLength: The length of data to be transferred from source to destination
 333:Drivers/STM32F1xx_HAL_Driver/Src/stm32f1xx_hal_dma.c ****   * @retval HAL status
 334:Drivers/STM32F1xx_HAL_Driver/Src/stm32f1xx_hal_dma.c ****   */
 335:Drivers/STM32F1xx_HAL_Driver/Src/stm32f1xx_hal_dma.c **** HAL_StatusTypeDef HAL_DMA_Start(DMA_HandleTypeDef *hdma, uint32_t SrcAddress, uint32_t DstAddress, 
 336:Drivers/STM32F1xx_HAL_Driver/Src/stm32f1xx_hal_dma.c **** {
 405              		.loc 1 336 1
 406              		.cfi_startproc
ARM GAS  /tmp/ccVx4VbF.s 			page 14


 407              		@ args = 0, pretend = 0, frame = 24
 408              		@ frame_needed = 1, uses_anonymous_args = 0
 409 0000 80B5     		push	{r7, lr}
 410              	.LCFI12:
 411              		.cfi_def_cfa_offset 8
 412              		.cfi_offset 7, -8
 413              		.cfi_offset 14, -4
 414 0002 86B0     		sub	sp, sp, #24
 415              	.LCFI13:
 416              		.cfi_def_cfa_offset 32
 417 0004 00AF     		add	r7, sp, #0
 418              	.LCFI14:
 419              		.cfi_def_cfa_register 7
 420 0006 F860     		str	r0, [r7, #12]
 421 0008 B960     		str	r1, [r7, #8]
 422 000a 7A60     		str	r2, [r7, #4]
 423 000c 3B60     		str	r3, [r7]
 337:Drivers/STM32F1xx_HAL_Driver/Src/stm32f1xx_hal_dma.c ****   HAL_StatusTypeDef status = HAL_OK;
 424              		.loc 1 337 21
 425 000e 0023     		movs	r3, #0
 426 0010 FB75     		strb	r3, [r7, #23]
 338:Drivers/STM32F1xx_HAL_Driver/Src/stm32f1xx_hal_dma.c **** 
 339:Drivers/STM32F1xx_HAL_Driver/Src/stm32f1xx_hal_dma.c ****   /* Check the parameters */
 340:Drivers/STM32F1xx_HAL_Driver/Src/stm32f1xx_hal_dma.c ****   assert_param(IS_DMA_BUFFER_SIZE(DataLength));
 341:Drivers/STM32F1xx_HAL_Driver/Src/stm32f1xx_hal_dma.c **** 
 342:Drivers/STM32F1xx_HAL_Driver/Src/stm32f1xx_hal_dma.c ****   /* Process locked */
 343:Drivers/STM32F1xx_HAL_Driver/Src/stm32f1xx_hal_dma.c ****   __HAL_LOCK(hdma);
 427              		.loc 1 343 3
 428 0012 FB68     		ldr	r3, [r7, #12]
 429 0014 93F82030 		ldrb	r3, [r3, #32]	@ zero_extendqisi2
 430 0018 012B     		cmp	r3, #1
 431 001a 01D1     		bne	.L16
 432              		.loc 1 343 3 is_stmt 0 discriminator 1
 433 001c 0223     		movs	r3, #2
 434 001e 2DE0     		b	.L17
 435              	.L16:
 436              		.loc 1 343 3 discriminator 2
 437 0020 FB68     		ldr	r3, [r7, #12]
 438 0022 0122     		movs	r2, #1
 439 0024 83F82020 		strb	r2, [r3, #32]
 344:Drivers/STM32F1xx_HAL_Driver/Src/stm32f1xx_hal_dma.c **** 
 345:Drivers/STM32F1xx_HAL_Driver/Src/stm32f1xx_hal_dma.c ****   if(HAL_DMA_STATE_READY == hdma->State)
 440              		.loc 1 345 33 is_stmt 1 discriminator 2
 441 0028 FB68     		ldr	r3, [r7, #12]
 442 002a 93F82130 		ldrb	r3, [r3, #33]	@ zero_extendqisi2
 443              		.loc 1 345 5 discriminator 2
 444 002e 012B     		cmp	r3, #1
 445 0030 1DD1     		bne	.L18
 346:Drivers/STM32F1xx_HAL_Driver/Src/stm32f1xx_hal_dma.c ****   {
 347:Drivers/STM32F1xx_HAL_Driver/Src/stm32f1xx_hal_dma.c ****     /* Change DMA peripheral state */
 348:Drivers/STM32F1xx_HAL_Driver/Src/stm32f1xx_hal_dma.c ****     hdma->State = HAL_DMA_STATE_BUSY;
 446              		.loc 1 348 17
 447 0032 FB68     		ldr	r3, [r7, #12]
 448 0034 0222     		movs	r2, #2
 449 0036 83F82120 		strb	r2, [r3, #33]
 349:Drivers/STM32F1xx_HAL_Driver/Src/stm32f1xx_hal_dma.c ****     hdma->ErrorCode = HAL_DMA_ERROR_NONE;
 450              		.loc 1 349 21
ARM GAS  /tmp/ccVx4VbF.s 			page 15


 451 003a FB68     		ldr	r3, [r7, #12]
 452 003c 0022     		movs	r2, #0
 453 003e 9A63     		str	r2, [r3, #56]
 350:Drivers/STM32F1xx_HAL_Driver/Src/stm32f1xx_hal_dma.c ****             
 351:Drivers/STM32F1xx_HAL_Driver/Src/stm32f1xx_hal_dma.c ****     /* Disable the peripheral */
 352:Drivers/STM32F1xx_HAL_Driver/Src/stm32f1xx_hal_dma.c ****     __HAL_DMA_DISABLE(hdma);
 454              		.loc 1 352 5
 455 0040 FB68     		ldr	r3, [r7, #12]
 456 0042 1B68     		ldr	r3, [r3]
 457 0044 1A68     		ldr	r2, [r3]
 458 0046 FB68     		ldr	r3, [r7, #12]
 459 0048 1B68     		ldr	r3, [r3]
 460 004a 22F00102 		bic	r2, r2, #1
 461 004e 1A60     		str	r2, [r3]
 353:Drivers/STM32F1xx_HAL_Driver/Src/stm32f1xx_hal_dma.c ****     
 354:Drivers/STM32F1xx_HAL_Driver/Src/stm32f1xx_hal_dma.c ****     /* Configure the source, destination address and the data length & clear flags*/
 355:Drivers/STM32F1xx_HAL_Driver/Src/stm32f1xx_hal_dma.c ****     DMA_SetConfig(hdma, SrcAddress, DstAddress, DataLength);
 462              		.loc 1 355 5
 463 0050 3B68     		ldr	r3, [r7]
 464 0052 7A68     		ldr	r2, [r7, #4]
 465 0054 B968     		ldr	r1, [r7, #8]
 466 0056 F868     		ldr	r0, [r7, #12]
 467 0058 FFF7FEFF 		bl	DMA_SetConfig
 356:Drivers/STM32F1xx_HAL_Driver/Src/stm32f1xx_hal_dma.c ****     
 357:Drivers/STM32F1xx_HAL_Driver/Src/stm32f1xx_hal_dma.c ****     /* Enable the Peripheral */
 358:Drivers/STM32F1xx_HAL_Driver/Src/stm32f1xx_hal_dma.c ****     __HAL_DMA_ENABLE(hdma);
 468              		.loc 1 358 5
 469 005c FB68     		ldr	r3, [r7, #12]
 470 005e 1B68     		ldr	r3, [r3]
 471 0060 1A68     		ldr	r2, [r3]
 472 0062 FB68     		ldr	r3, [r7, #12]
 473 0064 1B68     		ldr	r3, [r3]
 474 0066 42F00102 		orr	r2, r2, #1
 475 006a 1A60     		str	r2, [r3]
 476 006c 05E0     		b	.L19
 477              	.L18:
 359:Drivers/STM32F1xx_HAL_Driver/Src/stm32f1xx_hal_dma.c ****   }
 360:Drivers/STM32F1xx_HAL_Driver/Src/stm32f1xx_hal_dma.c ****   else
 361:Drivers/STM32F1xx_HAL_Driver/Src/stm32f1xx_hal_dma.c ****   {
 362:Drivers/STM32F1xx_HAL_Driver/Src/stm32f1xx_hal_dma.c ****    /* Process Unlocked */
 363:Drivers/STM32F1xx_HAL_Driver/Src/stm32f1xx_hal_dma.c ****    __HAL_UNLOCK(hdma);  
 478              		.loc 1 363 4
 479 006e FB68     		ldr	r3, [r7, #12]
 480 0070 0022     		movs	r2, #0
 481 0072 83F82020 		strb	r2, [r3, #32]
 364:Drivers/STM32F1xx_HAL_Driver/Src/stm32f1xx_hal_dma.c ****    status = HAL_BUSY;
 482              		.loc 1 364 11
 483 0076 0223     		movs	r3, #2
 484 0078 FB75     		strb	r3, [r7, #23]
 485              	.L19:
 365:Drivers/STM32F1xx_HAL_Driver/Src/stm32f1xx_hal_dma.c ****   }  
 366:Drivers/STM32F1xx_HAL_Driver/Src/stm32f1xx_hal_dma.c ****   return status;
 486              		.loc 1 366 10
 487 007a FB7D     		ldrb	r3, [r7, #23]	@ zero_extendqisi2
 488              	.L17:
 367:Drivers/STM32F1xx_HAL_Driver/Src/stm32f1xx_hal_dma.c **** }
 489              		.loc 1 367 1
ARM GAS  /tmp/ccVx4VbF.s 			page 16


 490 007c 1846     		mov	r0, r3
 491 007e 1837     		adds	r7, r7, #24
 492              	.LCFI15:
 493              		.cfi_def_cfa_offset 8
 494 0080 BD46     		mov	sp, r7
 495              	.LCFI16:
 496              		.cfi_def_cfa_register 13
 497              		@ sp needed
 498 0082 80BD     		pop	{r7, pc}
 499              		.cfi_endproc
 500              	.LFE68:
 502              		.section	.text.HAL_DMA_Start_IT,"ax",%progbits
 503              		.align	1
 504              		.global	HAL_DMA_Start_IT
 505              		.syntax unified
 506              		.thumb
 507              		.thumb_func
 508              		.fpu softvfp
 510              	HAL_DMA_Start_IT:
 511              	.LFB69:
 368:Drivers/STM32F1xx_HAL_Driver/Src/stm32f1xx_hal_dma.c **** 
 369:Drivers/STM32F1xx_HAL_Driver/Src/stm32f1xx_hal_dma.c **** /**
 370:Drivers/STM32F1xx_HAL_Driver/Src/stm32f1xx_hal_dma.c ****   * @brief  Start the DMA Transfer with interrupt enabled.
 371:Drivers/STM32F1xx_HAL_Driver/Src/stm32f1xx_hal_dma.c ****   * @param  hdma: pointer to a DMA_HandleTypeDef structure that contains
 372:Drivers/STM32F1xx_HAL_Driver/Src/stm32f1xx_hal_dma.c ****   *               the configuration information for the specified DMA Channel.
 373:Drivers/STM32F1xx_HAL_Driver/Src/stm32f1xx_hal_dma.c ****   * @param  SrcAddress: The source memory Buffer address
 374:Drivers/STM32F1xx_HAL_Driver/Src/stm32f1xx_hal_dma.c ****   * @param  DstAddress: The destination memory Buffer address
 375:Drivers/STM32F1xx_HAL_Driver/Src/stm32f1xx_hal_dma.c ****   * @param  DataLength: The length of data to be transferred from source to destination
 376:Drivers/STM32F1xx_HAL_Driver/Src/stm32f1xx_hal_dma.c ****   * @retval HAL status
 377:Drivers/STM32F1xx_HAL_Driver/Src/stm32f1xx_hal_dma.c ****   */
 378:Drivers/STM32F1xx_HAL_Driver/Src/stm32f1xx_hal_dma.c **** HAL_StatusTypeDef HAL_DMA_Start_IT(DMA_HandleTypeDef *hdma, uint32_t SrcAddress, uint32_t DstAddres
 379:Drivers/STM32F1xx_HAL_Driver/Src/stm32f1xx_hal_dma.c **** {
 512              		.loc 1 379 1
 513              		.cfi_startproc
 514              		@ args = 0, pretend = 0, frame = 24
 515              		@ frame_needed = 1, uses_anonymous_args = 0
 516 0000 80B5     		push	{r7, lr}
 517              	.LCFI17:
 518              		.cfi_def_cfa_offset 8
 519              		.cfi_offset 7, -8
 520              		.cfi_offset 14, -4
 521 0002 86B0     		sub	sp, sp, #24
 522              	.LCFI18:
 523              		.cfi_def_cfa_offset 32
 524 0004 00AF     		add	r7, sp, #0
 525              	.LCFI19:
 526              		.cfi_def_cfa_register 7
 527 0006 F860     		str	r0, [r7, #12]
 528 0008 B960     		str	r1, [r7, #8]
 529 000a 7A60     		str	r2, [r7, #4]
 530 000c 3B60     		str	r3, [r7]
 380:Drivers/STM32F1xx_HAL_Driver/Src/stm32f1xx_hal_dma.c ****   HAL_StatusTypeDef status = HAL_OK;
 531              		.loc 1 380 21
 532 000e 0023     		movs	r3, #0
 533 0010 FB75     		strb	r3, [r7, #23]
 381:Drivers/STM32F1xx_HAL_Driver/Src/stm32f1xx_hal_dma.c **** 
 382:Drivers/STM32F1xx_HAL_Driver/Src/stm32f1xx_hal_dma.c ****   /* Check the parameters */
ARM GAS  /tmp/ccVx4VbF.s 			page 17


 383:Drivers/STM32F1xx_HAL_Driver/Src/stm32f1xx_hal_dma.c ****   assert_param(IS_DMA_BUFFER_SIZE(DataLength));
 384:Drivers/STM32F1xx_HAL_Driver/Src/stm32f1xx_hal_dma.c **** 
 385:Drivers/STM32F1xx_HAL_Driver/Src/stm32f1xx_hal_dma.c ****   /* Process locked */
 386:Drivers/STM32F1xx_HAL_Driver/Src/stm32f1xx_hal_dma.c ****   __HAL_LOCK(hdma);
 534              		.loc 1 386 3
 535 0012 FB68     		ldr	r3, [r7, #12]
 536 0014 93F82030 		ldrb	r3, [r3, #32]	@ zero_extendqisi2
 537 0018 012B     		cmp	r3, #1
 538 001a 01D1     		bne	.L21
 539              		.loc 1 386 3 is_stmt 0 discriminator 1
 540 001c 0223     		movs	r3, #2
 541 001e 4AE0     		b	.L22
 542              	.L21:
 543              		.loc 1 386 3 discriminator 2
 544 0020 FB68     		ldr	r3, [r7, #12]
 545 0022 0122     		movs	r2, #1
 546 0024 83F82020 		strb	r2, [r3, #32]
 387:Drivers/STM32F1xx_HAL_Driver/Src/stm32f1xx_hal_dma.c ****   
 388:Drivers/STM32F1xx_HAL_Driver/Src/stm32f1xx_hal_dma.c ****   if(HAL_DMA_STATE_READY == hdma->State)
 547              		.loc 1 388 33 is_stmt 1 discriminator 2
 548 0028 FB68     		ldr	r3, [r7, #12]
 549 002a 93F82130 		ldrb	r3, [r3, #33]	@ zero_extendqisi2
 550              		.loc 1 388 5 discriminator 2
 551 002e 012B     		cmp	r3, #1
 552 0030 3AD1     		bne	.L23
 389:Drivers/STM32F1xx_HAL_Driver/Src/stm32f1xx_hal_dma.c ****   {
 390:Drivers/STM32F1xx_HAL_Driver/Src/stm32f1xx_hal_dma.c ****     /* Change DMA peripheral state */
 391:Drivers/STM32F1xx_HAL_Driver/Src/stm32f1xx_hal_dma.c ****     hdma->State = HAL_DMA_STATE_BUSY;
 553              		.loc 1 391 17
 554 0032 FB68     		ldr	r3, [r7, #12]
 555 0034 0222     		movs	r2, #2
 556 0036 83F82120 		strb	r2, [r3, #33]
 392:Drivers/STM32F1xx_HAL_Driver/Src/stm32f1xx_hal_dma.c ****     hdma->ErrorCode = HAL_DMA_ERROR_NONE;
 557              		.loc 1 392 21
 558 003a FB68     		ldr	r3, [r7, #12]
 559 003c 0022     		movs	r2, #0
 560 003e 9A63     		str	r2, [r3, #56]
 393:Drivers/STM32F1xx_HAL_Driver/Src/stm32f1xx_hal_dma.c ****     
 394:Drivers/STM32F1xx_HAL_Driver/Src/stm32f1xx_hal_dma.c ****     /* Disable the peripheral */
 395:Drivers/STM32F1xx_HAL_Driver/Src/stm32f1xx_hal_dma.c ****     __HAL_DMA_DISABLE(hdma);
 561              		.loc 1 395 5
 562 0040 FB68     		ldr	r3, [r7, #12]
 563 0042 1B68     		ldr	r3, [r3]
 564 0044 1A68     		ldr	r2, [r3]
 565 0046 FB68     		ldr	r3, [r7, #12]
 566 0048 1B68     		ldr	r3, [r3]
 567 004a 22F00102 		bic	r2, r2, #1
 568 004e 1A60     		str	r2, [r3]
 396:Drivers/STM32F1xx_HAL_Driver/Src/stm32f1xx_hal_dma.c ****     
 397:Drivers/STM32F1xx_HAL_Driver/Src/stm32f1xx_hal_dma.c ****     /* Configure the source, destination address and the data length & clear flags*/
 398:Drivers/STM32F1xx_HAL_Driver/Src/stm32f1xx_hal_dma.c ****     DMA_SetConfig(hdma, SrcAddress, DstAddress, DataLength);
 569              		.loc 1 398 5
 570 0050 3B68     		ldr	r3, [r7]
 571 0052 7A68     		ldr	r2, [r7, #4]
 572 0054 B968     		ldr	r1, [r7, #8]
 573 0056 F868     		ldr	r0, [r7, #12]
 574 0058 FFF7FEFF 		bl	DMA_SetConfig
ARM GAS  /tmp/ccVx4VbF.s 			page 18


 399:Drivers/STM32F1xx_HAL_Driver/Src/stm32f1xx_hal_dma.c ****     
 400:Drivers/STM32F1xx_HAL_Driver/Src/stm32f1xx_hal_dma.c ****     /* Enable the transfer complete interrupt */
 401:Drivers/STM32F1xx_HAL_Driver/Src/stm32f1xx_hal_dma.c ****     /* Enable the transfer Error interrupt */
 402:Drivers/STM32F1xx_HAL_Driver/Src/stm32f1xx_hal_dma.c ****     if(NULL != hdma->XferHalfCpltCallback)
 575              		.loc 1 402 20
 576 005c FB68     		ldr	r3, [r7, #12]
 577 005e DB6A     		ldr	r3, [r3, #44]
 578              		.loc 1 402 7
 579 0060 002B     		cmp	r3, #0
 580 0062 08D0     		beq	.L24
 403:Drivers/STM32F1xx_HAL_Driver/Src/stm32f1xx_hal_dma.c ****     {
 404:Drivers/STM32F1xx_HAL_Driver/Src/stm32f1xx_hal_dma.c ****       /* Enable the Half transfer complete interrupt as well */
 405:Drivers/STM32F1xx_HAL_Driver/Src/stm32f1xx_hal_dma.c ****       __HAL_DMA_ENABLE_IT(hdma, (DMA_IT_TC | DMA_IT_HT | DMA_IT_TE));
 581              		.loc 1 405 7
 582 0064 FB68     		ldr	r3, [r7, #12]
 583 0066 1B68     		ldr	r3, [r3]
 584 0068 1A68     		ldr	r2, [r3]
 585 006a FB68     		ldr	r3, [r7, #12]
 586 006c 1B68     		ldr	r3, [r3]
 587 006e 42F00E02 		orr	r2, r2, #14
 588 0072 1A60     		str	r2, [r3]
 589 0074 0FE0     		b	.L25
 590              	.L24:
 406:Drivers/STM32F1xx_HAL_Driver/Src/stm32f1xx_hal_dma.c ****     }
 407:Drivers/STM32F1xx_HAL_Driver/Src/stm32f1xx_hal_dma.c ****     else
 408:Drivers/STM32F1xx_HAL_Driver/Src/stm32f1xx_hal_dma.c ****     {
 409:Drivers/STM32F1xx_HAL_Driver/Src/stm32f1xx_hal_dma.c ****       __HAL_DMA_DISABLE_IT(hdma, DMA_IT_HT);
 591              		.loc 1 409 7
 592 0076 FB68     		ldr	r3, [r7, #12]
 593 0078 1B68     		ldr	r3, [r3]
 594 007a 1A68     		ldr	r2, [r3]
 595 007c FB68     		ldr	r3, [r7, #12]
 596 007e 1B68     		ldr	r3, [r3]
 597 0080 22F00402 		bic	r2, r2, #4
 598 0084 1A60     		str	r2, [r3]
 410:Drivers/STM32F1xx_HAL_Driver/Src/stm32f1xx_hal_dma.c ****       __HAL_DMA_ENABLE_IT(hdma, (DMA_IT_TC | DMA_IT_TE));
 599              		.loc 1 410 7
 600 0086 FB68     		ldr	r3, [r7, #12]
 601 0088 1B68     		ldr	r3, [r3]
 602 008a 1A68     		ldr	r2, [r3]
 603 008c FB68     		ldr	r3, [r7, #12]
 604 008e 1B68     		ldr	r3, [r3]
 605 0090 42F00A02 		orr	r2, r2, #10
 606 0094 1A60     		str	r2, [r3]
 607              	.L25:
 411:Drivers/STM32F1xx_HAL_Driver/Src/stm32f1xx_hal_dma.c ****     }
 412:Drivers/STM32F1xx_HAL_Driver/Src/stm32f1xx_hal_dma.c ****     /* Enable the Peripheral */
 413:Drivers/STM32F1xx_HAL_Driver/Src/stm32f1xx_hal_dma.c ****     __HAL_DMA_ENABLE(hdma);
 608              		.loc 1 413 5
 609 0096 FB68     		ldr	r3, [r7, #12]
 610 0098 1B68     		ldr	r3, [r3]
 611 009a 1A68     		ldr	r2, [r3]
 612 009c FB68     		ldr	r3, [r7, #12]
 613 009e 1B68     		ldr	r3, [r3]
 614 00a0 42F00102 		orr	r2, r2, #1
 615 00a4 1A60     		str	r2, [r3]
 616 00a6 05E0     		b	.L26
ARM GAS  /tmp/ccVx4VbF.s 			page 19


 617              	.L23:
 414:Drivers/STM32F1xx_HAL_Driver/Src/stm32f1xx_hal_dma.c ****   }
 415:Drivers/STM32F1xx_HAL_Driver/Src/stm32f1xx_hal_dma.c ****   else
 416:Drivers/STM32F1xx_HAL_Driver/Src/stm32f1xx_hal_dma.c ****   {      
 417:Drivers/STM32F1xx_HAL_Driver/Src/stm32f1xx_hal_dma.c ****     /* Process Unlocked */
 418:Drivers/STM32F1xx_HAL_Driver/Src/stm32f1xx_hal_dma.c ****     __HAL_UNLOCK(hdma); 
 618              		.loc 1 418 5
 619 00a8 FB68     		ldr	r3, [r7, #12]
 620 00aa 0022     		movs	r2, #0
 621 00ac 83F82020 		strb	r2, [r3, #32]
 419:Drivers/STM32F1xx_HAL_Driver/Src/stm32f1xx_hal_dma.c **** 
 420:Drivers/STM32F1xx_HAL_Driver/Src/stm32f1xx_hal_dma.c ****     /* Remain BUSY */
 421:Drivers/STM32F1xx_HAL_Driver/Src/stm32f1xx_hal_dma.c ****     status = HAL_BUSY;
 622              		.loc 1 421 12
 623 00b0 0223     		movs	r3, #2
 624 00b2 FB75     		strb	r3, [r7, #23]
 625              	.L26:
 422:Drivers/STM32F1xx_HAL_Driver/Src/stm32f1xx_hal_dma.c ****   }    
 423:Drivers/STM32F1xx_HAL_Driver/Src/stm32f1xx_hal_dma.c ****   return status;
 626              		.loc 1 423 10
 627 00b4 FB7D     		ldrb	r3, [r7, #23]	@ zero_extendqisi2
 628              	.L22:
 424:Drivers/STM32F1xx_HAL_Driver/Src/stm32f1xx_hal_dma.c **** }
 629              		.loc 1 424 1
 630 00b6 1846     		mov	r0, r3
 631 00b8 1837     		adds	r7, r7, #24
 632              	.LCFI20:
 633              		.cfi_def_cfa_offset 8
 634 00ba BD46     		mov	sp, r7
 635              	.LCFI21:
 636              		.cfi_def_cfa_register 13
 637              		@ sp needed
 638 00bc 80BD     		pop	{r7, pc}
 639              		.cfi_endproc
 640              	.LFE69:
 642              		.section	.text.HAL_DMA_Abort,"ax",%progbits
 643              		.align	1
 644              		.global	HAL_DMA_Abort
 645              		.syntax unified
 646              		.thumb
 647              		.thumb_func
 648              		.fpu softvfp
 650              	HAL_DMA_Abort:
 651              	.LFB70:
 425:Drivers/STM32F1xx_HAL_Driver/Src/stm32f1xx_hal_dma.c **** 
 426:Drivers/STM32F1xx_HAL_Driver/Src/stm32f1xx_hal_dma.c **** /**
 427:Drivers/STM32F1xx_HAL_Driver/Src/stm32f1xx_hal_dma.c ****   * @brief  Abort the DMA Transfer.
 428:Drivers/STM32F1xx_HAL_Driver/Src/stm32f1xx_hal_dma.c ****   * @param  hdma: pointer to a DMA_HandleTypeDef structure that contains
 429:Drivers/STM32F1xx_HAL_Driver/Src/stm32f1xx_hal_dma.c ****   *               the configuration information for the specified DMA Channel.
 430:Drivers/STM32F1xx_HAL_Driver/Src/stm32f1xx_hal_dma.c ****   * @retval HAL status
 431:Drivers/STM32F1xx_HAL_Driver/Src/stm32f1xx_hal_dma.c ****   */
 432:Drivers/STM32F1xx_HAL_Driver/Src/stm32f1xx_hal_dma.c **** HAL_StatusTypeDef HAL_DMA_Abort(DMA_HandleTypeDef *hdma)
 433:Drivers/STM32F1xx_HAL_Driver/Src/stm32f1xx_hal_dma.c **** {
 652              		.loc 1 433 1
 653              		.cfi_startproc
 654              		@ args = 0, pretend = 0, frame = 16
 655              		@ frame_needed = 1, uses_anonymous_args = 0
ARM GAS  /tmp/ccVx4VbF.s 			page 20


 656              		@ link register save eliminated.
 657 0000 80B4     		push	{r7}
 658              	.LCFI22:
 659              		.cfi_def_cfa_offset 4
 660              		.cfi_offset 7, -4
 661 0002 85B0     		sub	sp, sp, #20
 662              	.LCFI23:
 663              		.cfi_def_cfa_offset 24
 664 0004 00AF     		add	r7, sp, #0
 665              	.LCFI24:
 666              		.cfi_def_cfa_register 7
 667 0006 7860     		str	r0, [r7, #4]
 434:Drivers/STM32F1xx_HAL_Driver/Src/stm32f1xx_hal_dma.c ****   HAL_StatusTypeDef status = HAL_OK;
 668              		.loc 1 434 21
 669 0008 0023     		movs	r3, #0
 670 000a FB73     		strb	r3, [r7, #15]
 435:Drivers/STM32F1xx_HAL_Driver/Src/stm32f1xx_hal_dma.c **** 
 436:Drivers/STM32F1xx_HAL_Driver/Src/stm32f1xx_hal_dma.c ****   /* Disable DMA IT */
 437:Drivers/STM32F1xx_HAL_Driver/Src/stm32f1xx_hal_dma.c ****   __HAL_DMA_DISABLE_IT(hdma, (DMA_IT_TC | DMA_IT_HT | DMA_IT_TE));
 671              		.loc 1 437 3
 672 000c 7B68     		ldr	r3, [r7, #4]
 673 000e 1B68     		ldr	r3, [r3]
 674 0010 1A68     		ldr	r2, [r3]
 675 0012 7B68     		ldr	r3, [r7, #4]
 676 0014 1B68     		ldr	r3, [r3]
 677 0016 22F00E02 		bic	r2, r2, #14
 678 001a 1A60     		str	r2, [r3]
 438:Drivers/STM32F1xx_HAL_Driver/Src/stm32f1xx_hal_dma.c ****     
 439:Drivers/STM32F1xx_HAL_Driver/Src/stm32f1xx_hal_dma.c ****   /* Disable the channel */
 440:Drivers/STM32F1xx_HAL_Driver/Src/stm32f1xx_hal_dma.c ****   __HAL_DMA_DISABLE(hdma);
 679              		.loc 1 440 3
 680 001c 7B68     		ldr	r3, [r7, #4]
 681 001e 1B68     		ldr	r3, [r3]
 682 0020 1A68     		ldr	r2, [r3]
 683 0022 7B68     		ldr	r3, [r7, #4]
 684 0024 1B68     		ldr	r3, [r3]
 685 0026 22F00102 		bic	r2, r2, #1
 686 002a 1A60     		str	r2, [r3]
 441:Drivers/STM32F1xx_HAL_Driver/Src/stm32f1xx_hal_dma.c ****     
 442:Drivers/STM32F1xx_HAL_Driver/Src/stm32f1xx_hal_dma.c ****   /* Clear all flags */
 443:Drivers/STM32F1xx_HAL_Driver/Src/stm32f1xx_hal_dma.c ****   hdma->DmaBaseAddress->IFCR = (DMA_ISR_GIF1 << hdma->ChannelIndex);
 687              		.loc 1 443 53
 688 002c 7B68     		ldr	r3, [r7, #4]
 689 002e 1A6C     		ldr	r2, [r3, #64]
 690              		.loc 1 443 7
 691 0030 7B68     		ldr	r3, [r7, #4]
 692 0032 DB6B     		ldr	r3, [r3, #60]
 693              		.loc 1 443 46
 694 0034 0121     		movs	r1, #1
 695 0036 01FA02F2 		lsl	r2, r1, r2
 696              		.loc 1 443 30
 697 003a 5A60     		str	r2, [r3, #4]
 444:Drivers/STM32F1xx_HAL_Driver/Src/stm32f1xx_hal_dma.c **** 
 445:Drivers/STM32F1xx_HAL_Driver/Src/stm32f1xx_hal_dma.c ****   /* Change the DMA state */
 446:Drivers/STM32F1xx_HAL_Driver/Src/stm32f1xx_hal_dma.c ****   hdma->State = HAL_DMA_STATE_READY;
 698              		.loc 1 446 15
 699 003c 7B68     		ldr	r3, [r7, #4]
ARM GAS  /tmp/ccVx4VbF.s 			page 21


 700 003e 0122     		movs	r2, #1
 701 0040 83F82120 		strb	r2, [r3, #33]
 447:Drivers/STM32F1xx_HAL_Driver/Src/stm32f1xx_hal_dma.c **** 
 448:Drivers/STM32F1xx_HAL_Driver/Src/stm32f1xx_hal_dma.c ****   /* Process Unlocked */
 449:Drivers/STM32F1xx_HAL_Driver/Src/stm32f1xx_hal_dma.c ****   __HAL_UNLOCK(hdma);      
 702              		.loc 1 449 3
 703 0044 7B68     		ldr	r3, [r7, #4]
 704 0046 0022     		movs	r2, #0
 705 0048 83F82020 		strb	r2, [r3, #32]
 450:Drivers/STM32F1xx_HAL_Driver/Src/stm32f1xx_hal_dma.c ****   
 451:Drivers/STM32F1xx_HAL_Driver/Src/stm32f1xx_hal_dma.c ****   return status; 
 706              		.loc 1 451 10
 707 004c FB7B     		ldrb	r3, [r7, #15]	@ zero_extendqisi2
 452:Drivers/STM32F1xx_HAL_Driver/Src/stm32f1xx_hal_dma.c **** }
 708              		.loc 1 452 1
 709 004e 1846     		mov	r0, r3
 710 0050 1437     		adds	r7, r7, #20
 711              	.LCFI25:
 712              		.cfi_def_cfa_offset 4
 713 0052 BD46     		mov	sp, r7
 714              	.LCFI26:
 715              		.cfi_def_cfa_register 13
 716              		@ sp needed
 717 0054 80BC     		pop	{r7}
 718              	.LCFI27:
 719              		.cfi_restore 7
 720              		.cfi_def_cfa_offset 0
 721 0056 7047     		bx	lr
 722              		.cfi_endproc
 723              	.LFE70:
 725              		.section	.text.HAL_DMA_Abort_IT,"ax",%progbits
 726              		.align	1
 727              		.global	HAL_DMA_Abort_IT
 728              		.syntax unified
 729              		.thumb
 730              		.thumb_func
 731              		.fpu softvfp
 733              	HAL_DMA_Abort_IT:
 734              	.LFB71:
 453:Drivers/STM32F1xx_HAL_Driver/Src/stm32f1xx_hal_dma.c **** 
 454:Drivers/STM32F1xx_HAL_Driver/Src/stm32f1xx_hal_dma.c **** /**
 455:Drivers/STM32F1xx_HAL_Driver/Src/stm32f1xx_hal_dma.c ****   * @brief  Aborts the DMA Transfer in Interrupt mode.
 456:Drivers/STM32F1xx_HAL_Driver/Src/stm32f1xx_hal_dma.c ****   * @param  hdma  : pointer to a DMA_HandleTypeDef structure that contains
 457:Drivers/STM32F1xx_HAL_Driver/Src/stm32f1xx_hal_dma.c ****   *                 the configuration information for the specified DMA Channel.
 458:Drivers/STM32F1xx_HAL_Driver/Src/stm32f1xx_hal_dma.c ****   * @retval HAL status
 459:Drivers/STM32F1xx_HAL_Driver/Src/stm32f1xx_hal_dma.c ****   */
 460:Drivers/STM32F1xx_HAL_Driver/Src/stm32f1xx_hal_dma.c **** HAL_StatusTypeDef HAL_DMA_Abort_IT(DMA_HandleTypeDef *hdma)
 461:Drivers/STM32F1xx_HAL_Driver/Src/stm32f1xx_hal_dma.c **** {  
 735              		.loc 1 461 1
 736              		.cfi_startproc
 737              		@ args = 0, pretend = 0, frame = 16
 738              		@ frame_needed = 1, uses_anonymous_args = 0
 739 0000 80B5     		push	{r7, lr}
 740              	.LCFI28:
 741              		.cfi_def_cfa_offset 8
 742              		.cfi_offset 7, -8
 743              		.cfi_offset 14, -4
ARM GAS  /tmp/ccVx4VbF.s 			page 22


 744 0002 84B0     		sub	sp, sp, #16
 745              	.LCFI29:
 746              		.cfi_def_cfa_offset 24
 747 0004 00AF     		add	r7, sp, #0
 748              	.LCFI30:
 749              		.cfi_def_cfa_register 7
 750 0006 7860     		str	r0, [r7, #4]
 462:Drivers/STM32F1xx_HAL_Driver/Src/stm32f1xx_hal_dma.c ****   HAL_StatusTypeDef status = HAL_OK;
 751              		.loc 1 462 21
 752 0008 0023     		movs	r3, #0
 753 000a FB73     		strb	r3, [r7, #15]
 463:Drivers/STM32F1xx_HAL_Driver/Src/stm32f1xx_hal_dma.c ****   
 464:Drivers/STM32F1xx_HAL_Driver/Src/stm32f1xx_hal_dma.c ****   if(HAL_DMA_STATE_BUSY != hdma->State)
 754              		.loc 1 464 32
 755 000c 7B68     		ldr	r3, [r7, #4]
 756 000e 93F82130 		ldrb	r3, [r3, #33]	@ zero_extendqisi2
 757              		.loc 1 464 5
 758 0012 022B     		cmp	r3, #2
 759 0014 05D0     		beq	.L30
 465:Drivers/STM32F1xx_HAL_Driver/Src/stm32f1xx_hal_dma.c ****   {
 466:Drivers/STM32F1xx_HAL_Driver/Src/stm32f1xx_hal_dma.c ****     /* no transfer ongoing */
 467:Drivers/STM32F1xx_HAL_Driver/Src/stm32f1xx_hal_dma.c ****     hdma->ErrorCode = HAL_DMA_ERROR_NO_XFER;
 760              		.loc 1 467 21
 761 0016 7B68     		ldr	r3, [r7, #4]
 762 0018 0422     		movs	r2, #4
 763 001a 9A63     		str	r2, [r3, #56]
 468:Drivers/STM32F1xx_HAL_Driver/Src/stm32f1xx_hal_dma.c ****         
 469:Drivers/STM32F1xx_HAL_Driver/Src/stm32f1xx_hal_dma.c ****     status = HAL_ERROR;
 764              		.loc 1 469 12
 765 001c 0123     		movs	r3, #1
 766 001e FB73     		strb	r3, [r7, #15]
 767 0020 D6E0     		b	.L31
 768              	.L30:
 470:Drivers/STM32F1xx_HAL_Driver/Src/stm32f1xx_hal_dma.c ****   }
 471:Drivers/STM32F1xx_HAL_Driver/Src/stm32f1xx_hal_dma.c ****   else
 472:Drivers/STM32F1xx_HAL_Driver/Src/stm32f1xx_hal_dma.c ****   { 
 473:Drivers/STM32F1xx_HAL_Driver/Src/stm32f1xx_hal_dma.c ****     /* Disable DMA IT */
 474:Drivers/STM32F1xx_HAL_Driver/Src/stm32f1xx_hal_dma.c ****     __HAL_DMA_DISABLE_IT(hdma, (DMA_IT_TC | DMA_IT_HT | DMA_IT_TE));
 769              		.loc 1 474 5
 770 0022 7B68     		ldr	r3, [r7, #4]
 771 0024 1B68     		ldr	r3, [r3]
 772 0026 1A68     		ldr	r2, [r3]
 773 0028 7B68     		ldr	r3, [r7, #4]
 774 002a 1B68     		ldr	r3, [r3]
 775 002c 22F00E02 		bic	r2, r2, #14
 776 0030 1A60     		str	r2, [r3]
 475:Drivers/STM32F1xx_HAL_Driver/Src/stm32f1xx_hal_dma.c **** 
 476:Drivers/STM32F1xx_HAL_Driver/Src/stm32f1xx_hal_dma.c ****     /* Disable the channel */
 477:Drivers/STM32F1xx_HAL_Driver/Src/stm32f1xx_hal_dma.c ****     __HAL_DMA_DISABLE(hdma);
 777              		.loc 1 477 5
 778 0032 7B68     		ldr	r3, [r7, #4]
 779 0034 1B68     		ldr	r3, [r3]
 780 0036 1A68     		ldr	r2, [r3]
 781 0038 7B68     		ldr	r3, [r7, #4]
 782 003a 1B68     		ldr	r3, [r3]
 783 003c 22F00102 		bic	r2, r2, #1
 784 0040 1A60     		str	r2, [r3]
ARM GAS  /tmp/ccVx4VbF.s 			page 23


 478:Drivers/STM32F1xx_HAL_Driver/Src/stm32f1xx_hal_dma.c **** 
 479:Drivers/STM32F1xx_HAL_Driver/Src/stm32f1xx_hal_dma.c ****     /* Clear all flags */
 480:Drivers/STM32F1xx_HAL_Driver/Src/stm32f1xx_hal_dma.c ****     __HAL_DMA_CLEAR_FLAG(hdma, __HAL_DMA_GET_GI_FLAG_INDEX(hdma));
 785              		.loc 1 480 5
 786 0042 7B68     		ldr	r3, [r7, #4]
 787 0044 1B68     		ldr	r3, [r3]
 788 0046 1A46     		mov	r2, r3
 789 0048 644B     		ldr	r3, .L79
 790 004a 9A42     		cmp	r2, r3
 791 004c 58D9     		bls	.L32
 792              		.loc 1 480 5 is_stmt 0 discriminator 1
 793 004e 7B68     		ldr	r3, [r7, #4]
 794 0050 1B68     		ldr	r3, [r3]
 795 0052 634A     		ldr	r2, .L79+4
 796 0054 9342     		cmp	r3, r2
 797 0056 4FD0     		beq	.L33
 798              		.loc 1 480 5 discriminator 3
 799 0058 7B68     		ldr	r3, [r7, #4]
 800 005a 1B68     		ldr	r3, [r3]
 801 005c 614A     		ldr	r2, .L79+8
 802 005e 9342     		cmp	r3, r2
 803 0060 48D0     		beq	.L34
 804              		.loc 1 480 5 discriminator 5
 805 0062 7B68     		ldr	r3, [r7, #4]
 806 0064 1B68     		ldr	r3, [r3]
 807 0066 604A     		ldr	r2, .L79+12
 808 0068 9342     		cmp	r3, r2
 809 006a 40D0     		beq	.L35
 810              		.loc 1 480 5 discriminator 7
 811 006c 7B68     		ldr	r3, [r7, #4]
 812 006e 1B68     		ldr	r3, [r3]
 813 0070 5E4A     		ldr	r2, .L79+16
 814 0072 9342     		cmp	r3, r2
 815 0074 38D0     		beq	.L36
 816              		.loc 1 480 5 discriminator 9
 817 0076 7B68     		ldr	r3, [r7, #4]
 818 0078 1B68     		ldr	r3, [r3]
 819 007a 5D4A     		ldr	r2, .L79+20
 820 007c 9342     		cmp	r3, r2
 821 007e 30D0     		beq	.L37
 822              		.loc 1 480 5 discriminator 11
 823 0080 7B68     		ldr	r3, [r7, #4]
 824 0082 1B68     		ldr	r3, [r3]
 825 0084 5B4A     		ldr	r2, .L79+24
 826 0086 9342     		cmp	r3, r2
 827 0088 28D0     		beq	.L38
 828              		.loc 1 480 5 discriminator 13
 829 008a 7B68     		ldr	r3, [r7, #4]
 830 008c 1B68     		ldr	r3, [r3]
 831 008e 534A     		ldr	r2, .L79
 832 0090 9342     		cmp	r3, r2
 833 0092 20D0     		beq	.L39
 834              		.loc 1 480 5 discriminator 15
 835 0094 7B68     		ldr	r3, [r7, #4]
 836 0096 1B68     		ldr	r3, [r3]
 837 0098 574A     		ldr	r2, .L79+28
 838 009a 9342     		cmp	r3, r2
ARM GAS  /tmp/ccVx4VbF.s 			page 24


 839 009c 19D0     		beq	.L40
 840              		.loc 1 480 5 discriminator 17
 841 009e 7B68     		ldr	r3, [r7, #4]
 842 00a0 1B68     		ldr	r3, [r3]
 843 00a2 564A     		ldr	r2, .L79+32
 844 00a4 9342     		cmp	r3, r2
 845 00a6 12D0     		beq	.L41
 846              		.loc 1 480 5 discriminator 19
 847 00a8 7B68     		ldr	r3, [r7, #4]
 848 00aa 1B68     		ldr	r3, [r3]
 849 00ac 544A     		ldr	r2, .L79+36
 850 00ae 9342     		cmp	r3, r2
 851 00b0 0AD0     		beq	.L42
 852              		.loc 1 480 5 discriminator 21
 853 00b2 7B68     		ldr	r3, [r7, #4]
 854 00b4 1B68     		ldr	r3, [r3]
 855 00b6 534A     		ldr	r2, .L79+40
 856 00b8 9342     		cmp	r3, r2
 857 00ba 02D1     		bne	.L43
 858              		.loc 1 480 5 discriminator 23
 859 00bc 4FF48053 		mov	r3, #4096
 860 00c0 1BE0     		b	.L54
 861              	.L43:
 862              		.loc 1 480 5 discriminator 24
 863 00c2 4FF48033 		mov	r3, #65536
 864 00c6 18E0     		b	.L54
 865              	.L42:
 866              		.loc 1 480 5 discriminator 22
 867 00c8 4FF48073 		mov	r3, #256
 868 00cc 15E0     		b	.L54
 869              	.L41:
 870              		.loc 1 480 5 discriminator 20
 871 00ce 1023     		movs	r3, #16
 872 00d0 13E0     		b	.L54
 873              	.L40:
 874              		.loc 1 480 5 discriminator 18
 875 00d2 0123     		movs	r3, #1
 876 00d4 11E0     		b	.L54
 877              	.L39:
 878              		.loc 1 480 5 discriminator 16
 879 00d6 4FF08073 		mov	r3, #16777216
 880 00da 0EE0     		b	.L54
 881              	.L38:
 882              		.loc 1 480 5 discriminator 14
 883 00dc 4FF48013 		mov	r3, #1048576
 884 00e0 0BE0     		b	.L54
 885              	.L37:
 886              		.loc 1 480 5 discriminator 12
 887 00e2 4FF48033 		mov	r3, #65536
 888 00e6 08E0     		b	.L54
 889              	.L36:
 890              		.loc 1 480 5 discriminator 10
 891 00e8 4FF48053 		mov	r3, #4096
 892 00ec 05E0     		b	.L54
 893              	.L35:
 894              		.loc 1 480 5 discriminator 8
 895 00ee 4FF48073 		mov	r3, #256
ARM GAS  /tmp/ccVx4VbF.s 			page 25


 896 00f2 02E0     		b	.L54
 897              	.L34:
 898              		.loc 1 480 5 discriminator 6
 899 00f4 1023     		movs	r3, #16
 900 00f6 00E0     		b	.L54
 901              	.L33:
 902              		.loc 1 480 5 discriminator 4
 903 00f8 0123     		movs	r3, #1
 904              	.L54:
 905              		.loc 1 480 5 discriminator 46
 906 00fa 434A     		ldr	r2, .L79+44
 907 00fc 5360     		str	r3, [r2, #4]
 908 00fe 57E0     		b	.L55
 909              	.L32:
 910              		.loc 1 480 5 discriminator 2
 911 0100 7B68     		ldr	r3, [r7, #4]
 912 0102 1B68     		ldr	r3, [r3]
 913 0104 364A     		ldr	r2, .L79+4
 914 0106 9342     		cmp	r3, r2
 915 0108 4FD0     		beq	.L56
 916              		.loc 1 480 5 discriminator 47
 917 010a 7B68     		ldr	r3, [r7, #4]
 918 010c 1B68     		ldr	r3, [r3]
 919 010e 354A     		ldr	r2, .L79+8
 920 0110 9342     		cmp	r3, r2
 921 0112 48D0     		beq	.L57
 922              		.loc 1 480 5 discriminator 49
 923 0114 7B68     		ldr	r3, [r7, #4]
 924 0116 1B68     		ldr	r3, [r3]
 925 0118 334A     		ldr	r2, .L79+12
 926 011a 9342     		cmp	r3, r2
 927 011c 40D0     		beq	.L58
 928              		.loc 1 480 5 discriminator 51
 929 011e 7B68     		ldr	r3, [r7, #4]
 930 0120 1B68     		ldr	r3, [r3]
 931 0122 324A     		ldr	r2, .L79+16
 932 0124 9342     		cmp	r3, r2
 933 0126 38D0     		beq	.L59
 934              		.loc 1 480 5 discriminator 53
 935 0128 7B68     		ldr	r3, [r7, #4]
 936 012a 1B68     		ldr	r3, [r3]
 937 012c 304A     		ldr	r2, .L79+20
 938 012e 9342     		cmp	r3, r2
 939 0130 30D0     		beq	.L60
 940              		.loc 1 480 5 discriminator 55
 941 0132 7B68     		ldr	r3, [r7, #4]
 942 0134 1B68     		ldr	r3, [r3]
 943 0136 2F4A     		ldr	r2, .L79+24
 944 0138 9342     		cmp	r3, r2
 945 013a 28D0     		beq	.L61
 946              		.loc 1 480 5 discriminator 57
 947 013c 7B68     		ldr	r3, [r7, #4]
 948 013e 1B68     		ldr	r3, [r3]
 949 0140 264A     		ldr	r2, .L79
 950 0142 9342     		cmp	r3, r2
 951 0144 20D0     		beq	.L62
 952              		.loc 1 480 5 discriminator 59
ARM GAS  /tmp/ccVx4VbF.s 			page 26


 953 0146 7B68     		ldr	r3, [r7, #4]
 954 0148 1B68     		ldr	r3, [r3]
 955 014a 2B4A     		ldr	r2, .L79+28
 956 014c 9342     		cmp	r3, r2
 957 014e 19D0     		beq	.L63
 958              		.loc 1 480 5 discriminator 61
 959 0150 7B68     		ldr	r3, [r7, #4]
 960 0152 1B68     		ldr	r3, [r3]
 961 0154 294A     		ldr	r2, .L79+32
 962 0156 9342     		cmp	r3, r2
 963 0158 12D0     		beq	.L64
 964              		.loc 1 480 5 discriminator 63
 965 015a 7B68     		ldr	r3, [r7, #4]
 966 015c 1B68     		ldr	r3, [r3]
 967 015e 284A     		ldr	r2, .L79+36
 968 0160 9342     		cmp	r3, r2
 969 0162 0AD0     		beq	.L65
 970              		.loc 1 480 5 discriminator 65
 971 0164 7B68     		ldr	r3, [r7, #4]
 972 0166 1B68     		ldr	r3, [r3]
 973 0168 264A     		ldr	r2, .L79+40
 974 016a 9342     		cmp	r3, r2
 975 016c 02D1     		bne	.L66
 976              		.loc 1 480 5 discriminator 67
 977 016e 4FF48053 		mov	r3, #4096
 978 0172 1BE0     		b	.L77
 979              	.L66:
 980              		.loc 1 480 5 discriminator 68
 981 0174 4FF48033 		mov	r3, #65536
 982 0178 18E0     		b	.L77
 983              	.L65:
 984              		.loc 1 480 5 discriminator 66
 985 017a 4FF48073 		mov	r3, #256
 986 017e 15E0     		b	.L77
 987              	.L64:
 988              		.loc 1 480 5 discriminator 64
 989 0180 1023     		movs	r3, #16
 990 0182 13E0     		b	.L77
 991              	.L63:
 992              		.loc 1 480 5 discriminator 62
 993 0184 0123     		movs	r3, #1
 994 0186 11E0     		b	.L77
 995              	.L62:
 996              		.loc 1 480 5 discriminator 60
 997 0188 4FF08073 		mov	r3, #16777216
 998 018c 0EE0     		b	.L77
 999              	.L61:
 1000              		.loc 1 480 5 discriminator 58
 1001 018e 4FF48013 		mov	r3, #1048576
 1002 0192 0BE0     		b	.L77
 1003              	.L60:
 1004              		.loc 1 480 5 discriminator 56
 1005 0194 4FF48033 		mov	r3, #65536
 1006 0198 08E0     		b	.L77
 1007              	.L59:
 1008              		.loc 1 480 5 discriminator 54
 1009 019a 4FF48053 		mov	r3, #4096
ARM GAS  /tmp/ccVx4VbF.s 			page 27


 1010 019e 05E0     		b	.L77
 1011              	.L58:
 1012              		.loc 1 480 5 discriminator 52
 1013 01a0 4FF48073 		mov	r3, #256
 1014 01a4 02E0     		b	.L77
 1015              	.L57:
 1016              		.loc 1 480 5 discriminator 50
 1017 01a6 1023     		movs	r3, #16
 1018 01a8 00E0     		b	.L77
 1019              	.L56:
 1020              		.loc 1 480 5 discriminator 48
 1021 01aa 0123     		movs	r3, #1
 1022              	.L77:
 1023              		.loc 1 480 5 discriminator 90
 1024 01ac 174A     		ldr	r2, .L79+48
 1025 01ae 5360     		str	r3, [r2, #4]
 1026              	.L55:
 481:Drivers/STM32F1xx_HAL_Driver/Src/stm32f1xx_hal_dma.c **** 
 482:Drivers/STM32F1xx_HAL_Driver/Src/stm32f1xx_hal_dma.c ****     /* Change the DMA state */
 483:Drivers/STM32F1xx_HAL_Driver/Src/stm32f1xx_hal_dma.c ****     hdma->State = HAL_DMA_STATE_READY;
 1027              		.loc 1 483 17 is_stmt 1
 1028 01b0 7B68     		ldr	r3, [r7, #4]
 1029 01b2 0122     		movs	r2, #1
 1030 01b4 83F82120 		strb	r2, [r3, #33]
 484:Drivers/STM32F1xx_HAL_Driver/Src/stm32f1xx_hal_dma.c **** 
 485:Drivers/STM32F1xx_HAL_Driver/Src/stm32f1xx_hal_dma.c ****     /* Process Unlocked */
 486:Drivers/STM32F1xx_HAL_Driver/Src/stm32f1xx_hal_dma.c ****     __HAL_UNLOCK(hdma);
 1031              		.loc 1 486 5
 1032 01b8 7B68     		ldr	r3, [r7, #4]
 1033 01ba 0022     		movs	r2, #0
 1034 01bc 83F82020 		strb	r2, [r3, #32]
 487:Drivers/STM32F1xx_HAL_Driver/Src/stm32f1xx_hal_dma.c **** 
 488:Drivers/STM32F1xx_HAL_Driver/Src/stm32f1xx_hal_dma.c ****     /* Call User Abort callback */
 489:Drivers/STM32F1xx_HAL_Driver/Src/stm32f1xx_hal_dma.c ****     if(hdma->XferAbortCallback != NULL)
 1035              		.loc 1 489 12
 1036 01c0 7B68     		ldr	r3, [r7, #4]
 1037 01c2 5B6B     		ldr	r3, [r3, #52]
 1038              		.loc 1 489 7
 1039 01c4 002B     		cmp	r3, #0
 1040 01c6 03D0     		beq	.L31
 490:Drivers/STM32F1xx_HAL_Driver/Src/stm32f1xx_hal_dma.c ****     {
 491:Drivers/STM32F1xx_HAL_Driver/Src/stm32f1xx_hal_dma.c ****       hdma->XferAbortCallback(hdma);
 1041              		.loc 1 491 11
 1042 01c8 7B68     		ldr	r3, [r7, #4]
 1043 01ca 5B6B     		ldr	r3, [r3, #52]
 1044              		.loc 1 491 7
 1045 01cc 7868     		ldr	r0, [r7, #4]
 1046 01ce 9847     		blx	r3
 1047              	.LVL0:
 1048              	.L31:
 492:Drivers/STM32F1xx_HAL_Driver/Src/stm32f1xx_hal_dma.c ****     } 
 493:Drivers/STM32F1xx_HAL_Driver/Src/stm32f1xx_hal_dma.c ****   }
 494:Drivers/STM32F1xx_HAL_Driver/Src/stm32f1xx_hal_dma.c ****   return status;
 1049              		.loc 1 494 10
 1050 01d0 FB7B     		ldrb	r3, [r7, #15]	@ zero_extendqisi2
 495:Drivers/STM32F1xx_HAL_Driver/Src/stm32f1xx_hal_dma.c **** }
 1051              		.loc 1 495 1
ARM GAS  /tmp/ccVx4VbF.s 			page 28


 1052 01d2 1846     		mov	r0, r3
 1053 01d4 1037     		adds	r7, r7, #16
 1054              	.LCFI31:
 1055              		.cfi_def_cfa_offset 8
 1056 01d6 BD46     		mov	sp, r7
 1057              	.LCFI32:
 1058              		.cfi_def_cfa_register 13
 1059              		@ sp needed
 1060 01d8 80BD     		pop	{r7, pc}
 1061              	.L80:
 1062 01da 00BF     		.align	2
 1063              	.L79:
 1064 01dc 80000240 		.word	1073873024
 1065 01e0 08000240 		.word	1073872904
 1066 01e4 1C000240 		.word	1073872924
 1067 01e8 30000240 		.word	1073872944
 1068 01ec 44000240 		.word	1073872964
 1069 01f0 58000240 		.word	1073872984
 1070 01f4 6C000240 		.word	1073873004
 1071 01f8 08040240 		.word	1073873928
 1072 01fc 1C040240 		.word	1073873948
 1073 0200 30040240 		.word	1073873968
 1074 0204 44040240 		.word	1073873988
 1075 0208 00040240 		.word	1073873920
 1076 020c 00000240 		.word	1073872896
 1077              		.cfi_endproc
 1078              	.LFE71:
 1080              		.section	.text.HAL_DMA_PollForTransfer,"ax",%progbits
 1081              		.align	1
 1082              		.global	HAL_DMA_PollForTransfer
 1083              		.syntax unified
 1084              		.thumb
 1085              		.thumb_func
 1086              		.fpu softvfp
 1088              	HAL_DMA_PollForTransfer:
 1089              	.LFB72:
 496:Drivers/STM32F1xx_HAL_Driver/Src/stm32f1xx_hal_dma.c **** 
 497:Drivers/STM32F1xx_HAL_Driver/Src/stm32f1xx_hal_dma.c **** /**
 498:Drivers/STM32F1xx_HAL_Driver/Src/stm32f1xx_hal_dma.c ****   * @brief  Polling for transfer complete.
 499:Drivers/STM32F1xx_HAL_Driver/Src/stm32f1xx_hal_dma.c ****   * @param  hdma:    pointer to a DMA_HandleTypeDef structure that contains
 500:Drivers/STM32F1xx_HAL_Driver/Src/stm32f1xx_hal_dma.c ****   *                  the configuration information for the specified DMA Channel.
 501:Drivers/STM32F1xx_HAL_Driver/Src/stm32f1xx_hal_dma.c ****   * @param  CompleteLevel: Specifies the DMA level complete.
 502:Drivers/STM32F1xx_HAL_Driver/Src/stm32f1xx_hal_dma.c ****   * @param  Timeout:       Timeout duration.
 503:Drivers/STM32F1xx_HAL_Driver/Src/stm32f1xx_hal_dma.c ****   * @retval HAL status
 504:Drivers/STM32F1xx_HAL_Driver/Src/stm32f1xx_hal_dma.c ****   */
 505:Drivers/STM32F1xx_HAL_Driver/Src/stm32f1xx_hal_dma.c **** HAL_StatusTypeDef HAL_DMA_PollForTransfer(DMA_HandleTypeDef *hdma, uint32_t CompleteLevel, uint32_t
 506:Drivers/STM32F1xx_HAL_Driver/Src/stm32f1xx_hal_dma.c **** {
 1090              		.loc 1 506 1
 1091              		.cfi_startproc
 1092              		@ args = 0, pretend = 0, frame = 24
 1093              		@ frame_needed = 1, uses_anonymous_args = 0
 1094 0000 80B5     		push	{r7, lr}
 1095              	.LCFI33:
 1096              		.cfi_def_cfa_offset 8
 1097              		.cfi_offset 7, -8
 1098              		.cfi_offset 14, -4
 1099 0002 86B0     		sub	sp, sp, #24
ARM GAS  /tmp/ccVx4VbF.s 			page 29


 1100              	.LCFI34:
 1101              		.cfi_def_cfa_offset 32
 1102 0004 00AF     		add	r7, sp, #0
 1103              	.LCFI35:
 1104              		.cfi_def_cfa_register 7
 1105 0006 F860     		str	r0, [r7, #12]
 1106 0008 B960     		str	r1, [r7, #8]
 1107 000a 7A60     		str	r2, [r7, #4]
 507:Drivers/STM32F1xx_HAL_Driver/Src/stm32f1xx_hal_dma.c ****   uint32_t temp;
 508:Drivers/STM32F1xx_HAL_Driver/Src/stm32f1xx_hal_dma.c ****   uint32_t tickstart = 0U;
 1108              		.loc 1 508 12
 1109 000c 0023     		movs	r3, #0
 1110 000e 3B61     		str	r3, [r7, #16]
 509:Drivers/STM32F1xx_HAL_Driver/Src/stm32f1xx_hal_dma.c **** 
 510:Drivers/STM32F1xx_HAL_Driver/Src/stm32f1xx_hal_dma.c ****   if(HAL_DMA_STATE_BUSY != hdma->State)
 1111              		.loc 1 510 32
 1112 0010 FB68     		ldr	r3, [r7, #12]
 1113 0012 93F82130 		ldrb	r3, [r3, #33]	@ zero_extendqisi2
 1114              		.loc 1 510 5
 1115 0016 022B     		cmp	r3, #2
 1116 0018 08D0     		beq	.L82
 511:Drivers/STM32F1xx_HAL_Driver/Src/stm32f1xx_hal_dma.c ****   {
 512:Drivers/STM32F1xx_HAL_Driver/Src/stm32f1xx_hal_dma.c ****     /* no transfer ongoing */
 513:Drivers/STM32F1xx_HAL_Driver/Src/stm32f1xx_hal_dma.c ****     hdma->ErrorCode = HAL_DMA_ERROR_NO_XFER;
 1117              		.loc 1 513 21
 1118 001a FB68     		ldr	r3, [r7, #12]
 1119 001c 0422     		movs	r2, #4
 1120 001e 9A63     		str	r2, [r3, #56]
 514:Drivers/STM32F1xx_HAL_Driver/Src/stm32f1xx_hal_dma.c ****     __HAL_UNLOCK(hdma);
 1121              		.loc 1 514 5
 1122 0020 FB68     		ldr	r3, [r7, #12]
 1123 0022 0022     		movs	r2, #0
 1124 0024 83F82020 		strb	r2, [r3, #32]
 515:Drivers/STM32F1xx_HAL_Driver/Src/stm32f1xx_hal_dma.c ****     return HAL_ERROR;
 1125              		.loc 1 515 12
 1126 0028 0123     		movs	r3, #1
 1127 002a 88E3     		b	.L83
 1128              	.L82:
 516:Drivers/STM32F1xx_HAL_Driver/Src/stm32f1xx_hal_dma.c ****   }
 517:Drivers/STM32F1xx_HAL_Driver/Src/stm32f1xx_hal_dma.c **** 
 518:Drivers/STM32F1xx_HAL_Driver/Src/stm32f1xx_hal_dma.c ****   /* Polling mode not supported in circular mode */
 519:Drivers/STM32F1xx_HAL_Driver/Src/stm32f1xx_hal_dma.c ****   if (RESET != (hdma->Instance->CCR & DMA_CCR_CIRC))
 1129              		.loc 1 519 21
 1130 002c FB68     		ldr	r3, [r7, #12]
 1131 002e 1B68     		ldr	r3, [r3]
 1132              		.loc 1 519 31
 1133 0030 1B68     		ldr	r3, [r3]
 1134              		.loc 1 519 37
 1135 0032 03F02003 		and	r3, r3, #32
 1136              		.loc 1 519 6
 1137 0036 002B     		cmp	r3, #0
 1138 0038 05D0     		beq	.L84
 520:Drivers/STM32F1xx_HAL_Driver/Src/stm32f1xx_hal_dma.c ****   {
 521:Drivers/STM32F1xx_HAL_Driver/Src/stm32f1xx_hal_dma.c ****     hdma->ErrorCode = HAL_DMA_ERROR_NOT_SUPPORTED;
 1139              		.loc 1 521 21
 1140 003a FB68     		ldr	r3, [r7, #12]
 1141 003c 4FF48072 		mov	r2, #256
ARM GAS  /tmp/ccVx4VbF.s 			page 30


 1142 0040 9A63     		str	r2, [r3, #56]
 522:Drivers/STM32F1xx_HAL_Driver/Src/stm32f1xx_hal_dma.c ****     return HAL_ERROR;
 1143              		.loc 1 522 12
 1144 0042 0123     		movs	r3, #1
 1145 0044 7BE3     		b	.L83
 1146              	.L84:
 523:Drivers/STM32F1xx_HAL_Driver/Src/stm32f1xx_hal_dma.c ****   }
 524:Drivers/STM32F1xx_HAL_Driver/Src/stm32f1xx_hal_dma.c ****   
 525:Drivers/STM32F1xx_HAL_Driver/Src/stm32f1xx_hal_dma.c ****   /* Get the level transfer complete flag */
 526:Drivers/STM32F1xx_HAL_Driver/Src/stm32f1xx_hal_dma.c ****   if(CompleteLevel == HAL_DMA_FULL_TRANSFER)
 1147              		.loc 1 526 5
 1148 0046 BB68     		ldr	r3, [r7, #8]
 1149 0048 002B     		cmp	r3, #0
 1150 004a 57D1     		bne	.L85
 527:Drivers/STM32F1xx_HAL_Driver/Src/stm32f1xx_hal_dma.c ****   {
 528:Drivers/STM32F1xx_HAL_Driver/Src/stm32f1xx_hal_dma.c ****     /* Transfer Complete flag */
 529:Drivers/STM32F1xx_HAL_Driver/Src/stm32f1xx_hal_dma.c ****     temp = __HAL_DMA_GET_TC_FLAG_INDEX(hdma);
 1151              		.loc 1 529 12
 1152 004c FB68     		ldr	r3, [r7, #12]
 1153 004e 1B68     		ldr	r3, [r3]
 1154 0050 8A4A     		ldr	r2, .L276
 1155 0052 9342     		cmp	r3, r2
 1156 0054 4FD0     		beq	.L86
 1157              		.loc 1 529 12 is_stmt 0 discriminator 1
 1158 0056 FB68     		ldr	r3, [r7, #12]
 1159 0058 1B68     		ldr	r3, [r3]
 1160 005a 894A     		ldr	r2, .L276+4
 1161 005c 9342     		cmp	r3, r2
 1162 005e 48D0     		beq	.L87
 1163              		.loc 1 529 12 discriminator 3
 1164 0060 FB68     		ldr	r3, [r7, #12]
 1165 0062 1B68     		ldr	r3, [r3]
 1166 0064 874A     		ldr	r2, .L276+8
 1167 0066 9342     		cmp	r3, r2
 1168 0068 40D0     		beq	.L88
 1169              		.loc 1 529 12 discriminator 5
 1170 006a FB68     		ldr	r3, [r7, #12]
 1171 006c 1B68     		ldr	r3, [r3]
 1172 006e 864A     		ldr	r2, .L276+12
 1173 0070 9342     		cmp	r3, r2
 1174 0072 38D0     		beq	.L89
 1175              		.loc 1 529 12 discriminator 7
 1176 0074 FB68     		ldr	r3, [r7, #12]
 1177 0076 1B68     		ldr	r3, [r3]
 1178 0078 844A     		ldr	r2, .L276+16
 1179 007a 9342     		cmp	r3, r2
 1180 007c 30D0     		beq	.L90
 1181              		.loc 1 529 12 discriminator 9
 1182 007e FB68     		ldr	r3, [r7, #12]
 1183 0080 1B68     		ldr	r3, [r3]
 1184 0082 834A     		ldr	r2, .L276+20
 1185 0084 9342     		cmp	r3, r2
 1186 0086 28D0     		beq	.L91
 1187              		.loc 1 529 12 discriminator 11
 1188 0088 FB68     		ldr	r3, [r7, #12]
 1189 008a 1B68     		ldr	r3, [r3]
 1190 008c 814A     		ldr	r2, .L276+24
ARM GAS  /tmp/ccVx4VbF.s 			page 31


 1191 008e 9342     		cmp	r3, r2
 1192 0090 20D0     		beq	.L92
 1193              		.loc 1 529 12 discriminator 13
 1194 0092 FB68     		ldr	r3, [r7, #12]
 1195 0094 1B68     		ldr	r3, [r3]
 1196 0096 804A     		ldr	r2, .L276+28
 1197 0098 9342     		cmp	r3, r2
 1198 009a 19D0     		beq	.L93
 1199              		.loc 1 529 12 discriminator 15
 1200 009c FB68     		ldr	r3, [r7, #12]
 1201 009e 1B68     		ldr	r3, [r3]
 1202 00a0 7E4A     		ldr	r2, .L276+32
 1203 00a2 9342     		cmp	r3, r2
 1204 00a4 12D0     		beq	.L94
 1205              		.loc 1 529 12 discriminator 17
 1206 00a6 FB68     		ldr	r3, [r7, #12]
 1207 00a8 1B68     		ldr	r3, [r3]
 1208 00aa 7D4A     		ldr	r2, .L276+36
 1209 00ac 9342     		cmp	r3, r2
 1210 00ae 0AD0     		beq	.L95
 1211              		.loc 1 529 12 discriminator 19
 1212 00b0 FB68     		ldr	r3, [r7, #12]
 1213 00b2 1B68     		ldr	r3, [r3]
 1214 00b4 7B4A     		ldr	r2, .L276+40
 1215 00b6 9342     		cmp	r3, r2
 1216 00b8 02D1     		bne	.L96
 1217              		.loc 1 529 12 discriminator 21
 1218 00ba 4FF40053 		mov	r3, #8192
 1219 00be 1BE0     		b	.L107
 1220              	.L96:
 1221              		.loc 1 529 12 discriminator 22
 1222 00c0 4FF40033 		mov	r3, #131072
 1223 00c4 18E0     		b	.L107
 1224              	.L95:
 1225              		.loc 1 529 12 discriminator 20
 1226 00c6 4FF40073 		mov	r3, #512
 1227 00ca 15E0     		b	.L107
 1228              	.L94:
 1229              		.loc 1 529 12 discriminator 18
 1230 00cc 2023     		movs	r3, #32
 1231 00ce 13E0     		b	.L107
 1232              	.L93:
 1233              		.loc 1 529 12 discriminator 16
 1234 00d0 0223     		movs	r3, #2
 1235 00d2 11E0     		b	.L107
 1236              	.L92:
 1237              		.loc 1 529 12 discriminator 14
 1238 00d4 4FF00073 		mov	r3, #33554432
 1239 00d8 0EE0     		b	.L107
 1240              	.L91:
 1241              		.loc 1 529 12 discriminator 12
 1242 00da 4FF40013 		mov	r3, #2097152
 1243 00de 0BE0     		b	.L107
 1244              	.L90:
 1245              		.loc 1 529 12 discriminator 10
 1246 00e0 4FF40033 		mov	r3, #131072
 1247 00e4 08E0     		b	.L107
ARM GAS  /tmp/ccVx4VbF.s 			page 32


 1248              	.L89:
 1249              		.loc 1 529 12 discriminator 8
 1250 00e6 4FF40053 		mov	r3, #8192
 1251 00ea 05E0     		b	.L107
 1252              	.L88:
 1253              		.loc 1 529 12 discriminator 6
 1254 00ec 4FF40073 		mov	r3, #512
 1255 00f0 02E0     		b	.L107
 1256              	.L87:
 1257              		.loc 1 529 12 discriminator 4
 1258 00f2 2023     		movs	r3, #32
 1259 00f4 00E0     		b	.L107
 1260              	.L86:
 1261              		.loc 1 529 12 discriminator 2
 1262 00f6 0223     		movs	r3, #2
 1263              	.L107:
 1264              		.loc 1 529 10 is_stmt 1 discriminator 44
 1265 00f8 7B61     		str	r3, [r7, #20]
 1266 00fa 56E0     		b	.L108
 1267              	.L85:
 530:Drivers/STM32F1xx_HAL_Driver/Src/stm32f1xx_hal_dma.c ****   }
 531:Drivers/STM32F1xx_HAL_Driver/Src/stm32f1xx_hal_dma.c ****   else
 532:Drivers/STM32F1xx_HAL_Driver/Src/stm32f1xx_hal_dma.c ****   {
 533:Drivers/STM32F1xx_HAL_Driver/Src/stm32f1xx_hal_dma.c ****     /* Half Transfer Complete flag */
 534:Drivers/STM32F1xx_HAL_Driver/Src/stm32f1xx_hal_dma.c ****     temp = __HAL_DMA_GET_HT_FLAG_INDEX(hdma);
 1268              		.loc 1 534 12
 1269 00fc FB68     		ldr	r3, [r7, #12]
 1270 00fe 1B68     		ldr	r3, [r3]
 1271 0100 5E4A     		ldr	r2, .L276
 1272 0102 9342     		cmp	r3, r2
 1273 0104 4FD0     		beq	.L109
 1274              		.loc 1 534 12 is_stmt 0 discriminator 1
 1275 0106 FB68     		ldr	r3, [r7, #12]
 1276 0108 1B68     		ldr	r3, [r3]
 1277 010a 5D4A     		ldr	r2, .L276+4
 1278 010c 9342     		cmp	r3, r2
 1279 010e 48D0     		beq	.L110
 1280              		.loc 1 534 12 discriminator 3
 1281 0110 FB68     		ldr	r3, [r7, #12]
 1282 0112 1B68     		ldr	r3, [r3]
 1283 0114 5B4A     		ldr	r2, .L276+8
 1284 0116 9342     		cmp	r3, r2
 1285 0118 40D0     		beq	.L111
 1286              		.loc 1 534 12 discriminator 5
 1287 011a FB68     		ldr	r3, [r7, #12]
 1288 011c 1B68     		ldr	r3, [r3]
 1289 011e 5A4A     		ldr	r2, .L276+12
 1290 0120 9342     		cmp	r3, r2
 1291 0122 38D0     		beq	.L112
 1292              		.loc 1 534 12 discriminator 7
 1293 0124 FB68     		ldr	r3, [r7, #12]
 1294 0126 1B68     		ldr	r3, [r3]
 1295 0128 584A     		ldr	r2, .L276+16
 1296 012a 9342     		cmp	r3, r2
 1297 012c 30D0     		beq	.L113
 1298              		.loc 1 534 12 discriminator 9
 1299 012e FB68     		ldr	r3, [r7, #12]
ARM GAS  /tmp/ccVx4VbF.s 			page 33


 1300 0130 1B68     		ldr	r3, [r3]
 1301 0132 574A     		ldr	r2, .L276+20
 1302 0134 9342     		cmp	r3, r2
 1303 0136 28D0     		beq	.L114
 1304              		.loc 1 534 12 discriminator 11
 1305 0138 FB68     		ldr	r3, [r7, #12]
 1306 013a 1B68     		ldr	r3, [r3]
 1307 013c 554A     		ldr	r2, .L276+24
 1308 013e 9342     		cmp	r3, r2
 1309 0140 20D0     		beq	.L115
 1310              		.loc 1 534 12 discriminator 13
 1311 0142 FB68     		ldr	r3, [r7, #12]
 1312 0144 1B68     		ldr	r3, [r3]
 1313 0146 544A     		ldr	r2, .L276+28
 1314 0148 9342     		cmp	r3, r2
 1315 014a 19D0     		beq	.L116
 1316              		.loc 1 534 12 discriminator 15
 1317 014c FB68     		ldr	r3, [r7, #12]
 1318 014e 1B68     		ldr	r3, [r3]
 1319 0150 524A     		ldr	r2, .L276+32
 1320 0152 9342     		cmp	r3, r2
 1321 0154 12D0     		beq	.L117
 1322              		.loc 1 534 12 discriminator 17
 1323 0156 FB68     		ldr	r3, [r7, #12]
 1324 0158 1B68     		ldr	r3, [r3]
 1325 015a 514A     		ldr	r2, .L276+36
 1326 015c 9342     		cmp	r3, r2
 1327 015e 0AD0     		beq	.L118
 1328              		.loc 1 534 12 discriminator 19
 1329 0160 FB68     		ldr	r3, [r7, #12]
 1330 0162 1B68     		ldr	r3, [r3]
 1331 0164 4F4A     		ldr	r2, .L276+40
 1332 0166 9342     		cmp	r3, r2
 1333 0168 02D1     		bne	.L119
 1334              		.loc 1 534 12 discriminator 21
 1335 016a 4FF48043 		mov	r3, #16384
 1336 016e 1BE0     		b	.L130
 1337              	.L119:
 1338              		.loc 1 534 12 discriminator 22
 1339 0170 4FF48023 		mov	r3, #262144
 1340 0174 18E0     		b	.L130
 1341              	.L118:
 1342              		.loc 1 534 12 discriminator 20
 1343 0176 4FF48063 		mov	r3, #1024
 1344 017a 15E0     		b	.L130
 1345              	.L117:
 1346              		.loc 1 534 12 discriminator 18
 1347 017c 4023     		movs	r3, #64
 1348 017e 13E0     		b	.L130
 1349              	.L116:
 1350              		.loc 1 534 12 discriminator 16
 1351 0180 0423     		movs	r3, #4
 1352 0182 11E0     		b	.L130
 1353              	.L115:
 1354              		.loc 1 534 12 discriminator 14
 1355 0184 4FF08063 		mov	r3, #67108864
 1356 0188 0EE0     		b	.L130
ARM GAS  /tmp/ccVx4VbF.s 			page 34


 1357              	.L114:
 1358              		.loc 1 534 12 discriminator 12
 1359 018a 4FF48003 		mov	r3, #4194304
 1360 018e 0BE0     		b	.L130
 1361              	.L113:
 1362              		.loc 1 534 12 discriminator 10
 1363 0190 4FF48023 		mov	r3, #262144
 1364 0194 08E0     		b	.L130
 1365              	.L112:
 1366              		.loc 1 534 12 discriminator 8
 1367 0196 4FF48043 		mov	r3, #16384
 1368 019a 05E0     		b	.L130
 1369              	.L111:
 1370              		.loc 1 534 12 discriminator 6
 1371 019c 4FF48063 		mov	r3, #1024
 1372 01a0 02E0     		b	.L130
 1373              	.L110:
 1374              		.loc 1 534 12 discriminator 4
 1375 01a2 4023     		movs	r3, #64
 1376 01a4 00E0     		b	.L130
 1377              	.L109:
 1378              		.loc 1 534 12 discriminator 2
 1379 01a6 0423     		movs	r3, #4
 1380              	.L130:
 1381              		.loc 1 534 10 is_stmt 1 discriminator 44
 1382 01a8 7B61     		str	r3, [r7, #20]
 1383              	.L108:
 535:Drivers/STM32F1xx_HAL_Driver/Src/stm32f1xx_hal_dma.c ****   }
 536:Drivers/STM32F1xx_HAL_Driver/Src/stm32f1xx_hal_dma.c **** 
 537:Drivers/STM32F1xx_HAL_Driver/Src/stm32f1xx_hal_dma.c ****   /* Get tick */
 538:Drivers/STM32F1xx_HAL_Driver/Src/stm32f1xx_hal_dma.c ****   tickstart = HAL_GetTick();
 1384              		.loc 1 538 15
 1385 01aa FFF7FEFF 		bl	HAL_GetTick
 1386 01ae 3861     		str	r0, [r7, #16]
 539:Drivers/STM32F1xx_HAL_Driver/Src/stm32f1xx_hal_dma.c **** 
 540:Drivers/STM32F1xx_HAL_Driver/Src/stm32f1xx_hal_dma.c ****   while(__HAL_DMA_GET_FLAG(hdma, temp) == RESET)
 1387              		.loc 1 540 8
 1388 01b0 13E1     		b	.L131
 1389              	.L182:
 541:Drivers/STM32F1xx_HAL_Driver/Src/stm32f1xx_hal_dma.c ****   {
 542:Drivers/STM32F1xx_HAL_Driver/Src/stm32f1xx_hal_dma.c ****     if((__HAL_DMA_GET_FLAG(hdma, __HAL_DMA_GET_TE_FLAG_INDEX(hdma)) != RESET))
 1390              		.loc 1 542 9
 1391 01b2 FB68     		ldr	r3, [r7, #12]
 1392 01b4 1B68     		ldr	r3, [r3]
 1393 01b6 1A46     		mov	r2, r3
 1394              		.loc 1 542 69
 1395 01b8 364B     		ldr	r3, .L276+24
 1396 01ba 9A42     		cmp	r2, r3
 1397 01bc 76D9     		bls	.L132
 1398              		.loc 1 542 9 discriminator 1
 1399 01be 3A4B     		ldr	r3, .L276+44
 1400 01c0 1A68     		ldr	r2, [r3]
 1401 01c2 FB68     		ldr	r3, [r7, #12]
 1402 01c4 1B68     		ldr	r3, [r3]
 1403 01c6 2D49     		ldr	r1, .L276
 1404 01c8 8B42     		cmp	r3, r1
 1405 01ca 4FD0     		beq	.L133
ARM GAS  /tmp/ccVx4VbF.s 			page 35


 1406              		.loc 1 542 9 is_stmt 0 discriminator 3
 1407 01cc FB68     		ldr	r3, [r7, #12]
 1408 01ce 1B68     		ldr	r3, [r3]
 1409 01d0 2B49     		ldr	r1, .L276+4
 1410 01d2 8B42     		cmp	r3, r1
 1411 01d4 48D0     		beq	.L134
 1412              		.loc 1 542 9 discriminator 5
 1413 01d6 FB68     		ldr	r3, [r7, #12]
 1414 01d8 1B68     		ldr	r3, [r3]
 1415 01da 2A49     		ldr	r1, .L276+8
 1416 01dc 8B42     		cmp	r3, r1
 1417 01de 40D0     		beq	.L135
 1418              		.loc 1 542 9 discriminator 7
 1419 01e0 FB68     		ldr	r3, [r7, #12]
 1420 01e2 1B68     		ldr	r3, [r3]
 1421 01e4 2849     		ldr	r1, .L276+12
 1422 01e6 8B42     		cmp	r3, r1
 1423 01e8 38D0     		beq	.L136
 1424              		.loc 1 542 9 discriminator 9
 1425 01ea FB68     		ldr	r3, [r7, #12]
 1426 01ec 1B68     		ldr	r3, [r3]
 1427 01ee 2749     		ldr	r1, .L276+16
 1428 01f0 8B42     		cmp	r3, r1
 1429 01f2 30D0     		beq	.L137
 1430              		.loc 1 542 9 discriminator 11
 1431 01f4 FB68     		ldr	r3, [r7, #12]
 1432 01f6 1B68     		ldr	r3, [r3]
 1433 01f8 2549     		ldr	r1, .L276+20
 1434 01fa 8B42     		cmp	r3, r1
 1435 01fc 28D0     		beq	.L138
 1436              		.loc 1 542 9 discriminator 13
 1437 01fe FB68     		ldr	r3, [r7, #12]
 1438 0200 1B68     		ldr	r3, [r3]
 1439 0202 2449     		ldr	r1, .L276+24
 1440 0204 8B42     		cmp	r3, r1
 1441 0206 20D0     		beq	.L139
 1442              		.loc 1 542 9 discriminator 15
 1443 0208 FB68     		ldr	r3, [r7, #12]
 1444 020a 1B68     		ldr	r3, [r3]
 1445 020c 2249     		ldr	r1, .L276+28
 1446 020e 8B42     		cmp	r3, r1
 1447 0210 19D0     		beq	.L140
 1448              		.loc 1 542 9 discriminator 17
 1449 0212 FB68     		ldr	r3, [r7, #12]
 1450 0214 1B68     		ldr	r3, [r3]
 1451 0216 2149     		ldr	r1, .L276+32
 1452 0218 8B42     		cmp	r3, r1
 1453 021a 12D0     		beq	.L141
 1454              		.loc 1 542 9 discriminator 19
 1455 021c FB68     		ldr	r3, [r7, #12]
 1456 021e 1B68     		ldr	r3, [r3]
 1457 0220 1F49     		ldr	r1, .L276+36
 1458 0222 8B42     		cmp	r3, r1
 1459 0224 0AD0     		beq	.L142
 1460              		.loc 1 542 9 discriminator 21
 1461 0226 FB68     		ldr	r3, [r7, #12]
 1462 0228 1B68     		ldr	r3, [r3]
ARM GAS  /tmp/ccVx4VbF.s 			page 36


 1463 022a 1E49     		ldr	r1, .L276+40
 1464 022c 8B42     		cmp	r3, r1
 1465 022e 02D1     		bne	.L143
 1466              		.loc 1 542 9 discriminator 23
 1467 0230 4FF40043 		mov	r3, #32768
 1468 0234 1BE0     		b	.L154
 1469              	.L143:
 1470              		.loc 1 542 9 discriminator 24
 1471 0236 4FF40023 		mov	r3, #524288
 1472 023a 18E0     		b	.L154
 1473              	.L142:
 1474              		.loc 1 542 9 discriminator 22
 1475 023c 4FF40063 		mov	r3, #2048
 1476 0240 15E0     		b	.L154
 1477              	.L141:
 1478              		.loc 1 542 9 discriminator 20
 1479 0242 8023     		movs	r3, #128
 1480 0244 13E0     		b	.L154
 1481              	.L140:
 1482              		.loc 1 542 9 discriminator 18
 1483 0246 0823     		movs	r3, #8
 1484 0248 11E0     		b	.L154
 1485              	.L139:
 1486              		.loc 1 542 9 discriminator 16
 1487 024a 4FF00063 		mov	r3, #134217728
 1488 024e 0EE0     		b	.L154
 1489              	.L138:
 1490              		.loc 1 542 9 discriminator 14
 1491 0250 4FF40003 		mov	r3, #8388608
 1492 0254 0BE0     		b	.L154
 1493              	.L137:
 1494              		.loc 1 542 9 discriminator 12
 1495 0256 4FF40023 		mov	r3, #524288
 1496 025a 08E0     		b	.L154
 1497              	.L136:
 1498              		.loc 1 542 9 discriminator 10
 1499 025c 4FF40043 		mov	r3, #32768
 1500 0260 05E0     		b	.L154
 1501              	.L135:
 1502              		.loc 1 542 9 discriminator 8
 1503 0262 4FF40063 		mov	r3, #2048
 1504 0266 02E0     		b	.L154
 1505              	.L134:
 1506              		.loc 1 542 9 discriminator 6
 1507 0268 8023     		movs	r3, #128
 1508 026a 00E0     		b	.L154
 1509              	.L133:
 1510              		.loc 1 542 9 discriminator 4
 1511 026c 0823     		movs	r3, #8
 1512              	.L154:
 1513              		.loc 1 542 9 discriminator 46
 1514 026e 1340     		ands	r3, r3, r2
 1515              		.loc 1 542 69 is_stmt 1 discriminator 46
 1516 0270 002B     		cmp	r3, #0
 1517 0272 14BF     		ite	ne
 1518 0274 0123     		movne	r3, #1
 1519 0276 0023     		moveq	r3, #0
ARM GAS  /tmp/ccVx4VbF.s 			page 37


 1520 0278 DBB2     		uxtb	r3, r3
 1521 027a 75E0     		b	.L155
 1522              	.L277:
 1523              		.align	2
 1524              	.L276:
 1525 027c 08000240 		.word	1073872904
 1526 0280 1C000240 		.word	1073872924
 1527 0284 30000240 		.word	1073872944
 1528 0288 44000240 		.word	1073872964
 1529 028c 58000240 		.word	1073872984
 1530 0290 6C000240 		.word	1073873004
 1531 0294 80000240 		.word	1073873024
 1532 0298 08040240 		.word	1073873928
 1533 029c 1C040240 		.word	1073873948
 1534 02a0 30040240 		.word	1073873968
 1535 02a4 44040240 		.word	1073873988
 1536 02a8 00040240 		.word	1073873920
 1537              	.L132:
 1538              		.loc 1 542 9 discriminator 2
 1539 02ac 8A4B     		ldr	r3, .L278
 1540 02ae 1A68     		ldr	r2, [r3]
 1541 02b0 FB68     		ldr	r3, [r7, #12]
 1542 02b2 1B68     		ldr	r3, [r3]
 1543 02b4 8949     		ldr	r1, .L278+4
 1544 02b6 8B42     		cmp	r3, r1
 1545 02b8 4FD0     		beq	.L156
 1546              		.loc 1 542 9 is_stmt 0 discriminator 48
 1547 02ba FB68     		ldr	r3, [r7, #12]
 1548 02bc 1B68     		ldr	r3, [r3]
 1549 02be 8849     		ldr	r1, .L278+8
 1550 02c0 8B42     		cmp	r3, r1
 1551 02c2 48D0     		beq	.L157
 1552              		.loc 1 542 9 discriminator 50
 1553 02c4 FB68     		ldr	r3, [r7, #12]
 1554 02c6 1B68     		ldr	r3, [r3]
 1555 02c8 8649     		ldr	r1, .L278+12
 1556 02ca 8B42     		cmp	r3, r1
 1557 02cc 40D0     		beq	.L158
 1558              		.loc 1 542 9 discriminator 52
 1559 02ce FB68     		ldr	r3, [r7, #12]
 1560 02d0 1B68     		ldr	r3, [r3]
 1561 02d2 8549     		ldr	r1, .L278+16
 1562 02d4 8B42     		cmp	r3, r1
 1563 02d6 38D0     		beq	.L159
 1564              		.loc 1 542 9 discriminator 54
 1565 02d8 FB68     		ldr	r3, [r7, #12]
 1566 02da 1B68     		ldr	r3, [r3]
 1567 02dc 8349     		ldr	r1, .L278+20
 1568 02de 8B42     		cmp	r3, r1
 1569 02e0 30D0     		beq	.L160
 1570              		.loc 1 542 9 discriminator 56
 1571 02e2 FB68     		ldr	r3, [r7, #12]
 1572 02e4 1B68     		ldr	r3, [r3]
 1573 02e6 8249     		ldr	r1, .L278+24
 1574 02e8 8B42     		cmp	r3, r1
 1575 02ea 28D0     		beq	.L161
 1576              		.loc 1 542 9 discriminator 58
ARM GAS  /tmp/ccVx4VbF.s 			page 38


 1577 02ec FB68     		ldr	r3, [r7, #12]
 1578 02ee 1B68     		ldr	r3, [r3]
 1579 02f0 8049     		ldr	r1, .L278+28
 1580 02f2 8B42     		cmp	r3, r1
 1581 02f4 20D0     		beq	.L162
 1582              		.loc 1 542 9 discriminator 60
 1583 02f6 FB68     		ldr	r3, [r7, #12]
 1584 02f8 1B68     		ldr	r3, [r3]
 1585 02fa 7F49     		ldr	r1, .L278+32
 1586 02fc 8B42     		cmp	r3, r1
 1587 02fe 19D0     		beq	.L163
 1588              		.loc 1 542 9 discriminator 62
 1589 0300 FB68     		ldr	r3, [r7, #12]
 1590 0302 1B68     		ldr	r3, [r3]
 1591 0304 7D49     		ldr	r1, .L278+36
 1592 0306 8B42     		cmp	r3, r1
 1593 0308 12D0     		beq	.L164
 1594              		.loc 1 542 9 discriminator 64
 1595 030a FB68     		ldr	r3, [r7, #12]
 1596 030c 1B68     		ldr	r3, [r3]
 1597 030e 7C49     		ldr	r1, .L278+40
 1598 0310 8B42     		cmp	r3, r1
 1599 0312 0AD0     		beq	.L165
 1600              		.loc 1 542 9 discriminator 66
 1601 0314 FB68     		ldr	r3, [r7, #12]
 1602 0316 1B68     		ldr	r3, [r3]
 1603 0318 7A49     		ldr	r1, .L278+44
 1604 031a 8B42     		cmp	r3, r1
 1605 031c 02D1     		bne	.L166
 1606              		.loc 1 542 9 discriminator 68
 1607 031e 4FF40043 		mov	r3, #32768
 1608 0322 1BE0     		b	.L177
 1609              	.L166:
 1610              		.loc 1 542 9 discriminator 69
 1611 0324 4FF40023 		mov	r3, #524288
 1612 0328 18E0     		b	.L177
 1613              	.L165:
 1614              		.loc 1 542 9 discriminator 67
 1615 032a 4FF40063 		mov	r3, #2048
 1616 032e 15E0     		b	.L177
 1617              	.L164:
 1618              		.loc 1 542 9 discriminator 65
 1619 0330 8023     		movs	r3, #128
 1620 0332 13E0     		b	.L177
 1621              	.L163:
 1622              		.loc 1 542 9 discriminator 63
 1623 0334 0823     		movs	r3, #8
 1624 0336 11E0     		b	.L177
 1625              	.L162:
 1626              		.loc 1 542 9 discriminator 61
 1627 0338 4FF00063 		mov	r3, #134217728
 1628 033c 0EE0     		b	.L177
 1629              	.L161:
 1630              		.loc 1 542 9 discriminator 59
 1631 033e 4FF40003 		mov	r3, #8388608
 1632 0342 0BE0     		b	.L177
 1633              	.L160:
ARM GAS  /tmp/ccVx4VbF.s 			page 39


 1634              		.loc 1 542 9 discriminator 57
 1635 0344 4FF40023 		mov	r3, #524288
 1636 0348 08E0     		b	.L177
 1637              	.L159:
 1638              		.loc 1 542 9 discriminator 55
 1639 034a 4FF40043 		mov	r3, #32768
 1640 034e 05E0     		b	.L177
 1641              	.L158:
 1642              		.loc 1 542 9 discriminator 53
 1643 0350 4FF40063 		mov	r3, #2048
 1644 0354 02E0     		b	.L177
 1645              	.L157:
 1646              		.loc 1 542 9 discriminator 51
 1647 0356 8023     		movs	r3, #128
 1648 0358 00E0     		b	.L177
 1649              	.L156:
 1650              		.loc 1 542 9 discriminator 49
 1651 035a 0823     		movs	r3, #8
 1652              	.L177:
 1653              		.loc 1 542 9 discriminator 91
 1654 035c 1340     		ands	r3, r3, r2
 1655              		.loc 1 542 69 is_stmt 1 discriminator 91
 1656 035e 002B     		cmp	r3, #0
 1657 0360 14BF     		ite	ne
 1658 0362 0123     		movne	r3, #1
 1659 0364 0023     		moveq	r3, #0
 1660 0366 DBB2     		uxtb	r3, r3
 1661              	.L155:
 1662              		.loc 1 542 7 discriminator 92
 1663 0368 002B     		cmp	r3, #0
 1664 036a 17D0     		beq	.L178
 543:Drivers/STM32F1xx_HAL_Driver/Src/stm32f1xx_hal_dma.c ****     {
 544:Drivers/STM32F1xx_HAL_Driver/Src/stm32f1xx_hal_dma.c ****       /* When a DMA transfer error occurs */
 545:Drivers/STM32F1xx_HAL_Driver/Src/stm32f1xx_hal_dma.c ****       /* A hardware clear of its EN bits is performed */
 546:Drivers/STM32F1xx_HAL_Driver/Src/stm32f1xx_hal_dma.c ****       /* Clear all flags */
 547:Drivers/STM32F1xx_HAL_Driver/Src/stm32f1xx_hal_dma.c ****       hdma->DmaBaseAddress->IFCR = (DMA_ISR_GIF1 << hdma->ChannelIndex);
 1665              		.loc 1 547 57
 1666 036c FB68     		ldr	r3, [r7, #12]
 1667 036e 1A6C     		ldr	r2, [r3, #64]
 1668              		.loc 1 547 11
 1669 0370 FB68     		ldr	r3, [r7, #12]
 1670 0372 DB6B     		ldr	r3, [r3, #60]
 1671              		.loc 1 547 50
 1672 0374 0121     		movs	r1, #1
 1673 0376 01FA02F2 		lsl	r2, r1, r2
 1674              		.loc 1 547 34
 1675 037a 5A60     		str	r2, [r3, #4]
 548:Drivers/STM32F1xx_HAL_Driver/Src/stm32f1xx_hal_dma.c **** 
 549:Drivers/STM32F1xx_HAL_Driver/Src/stm32f1xx_hal_dma.c ****       /* Update error code */
 550:Drivers/STM32F1xx_HAL_Driver/Src/stm32f1xx_hal_dma.c ****       SET_BIT(hdma->ErrorCode, HAL_DMA_ERROR_TE);
 1676              		.loc 1 550 7
 1677 037c FB68     		ldr	r3, [r7, #12]
 1678 037e 9B6B     		ldr	r3, [r3, #56]
 1679 0380 43F00102 		orr	r2, r3, #1
 1680 0384 FB68     		ldr	r3, [r7, #12]
 1681 0386 9A63     		str	r2, [r3, #56]
 551:Drivers/STM32F1xx_HAL_Driver/Src/stm32f1xx_hal_dma.c **** 
ARM GAS  /tmp/ccVx4VbF.s 			page 40


 552:Drivers/STM32F1xx_HAL_Driver/Src/stm32f1xx_hal_dma.c ****       /* Change the DMA state */
 553:Drivers/STM32F1xx_HAL_Driver/Src/stm32f1xx_hal_dma.c ****       hdma->State= HAL_DMA_STATE_READY;
 1682              		.loc 1 553 18
 1683 0388 FB68     		ldr	r3, [r7, #12]
 1684 038a 0122     		movs	r2, #1
 1685 038c 83F82120 		strb	r2, [r3, #33]
 554:Drivers/STM32F1xx_HAL_Driver/Src/stm32f1xx_hal_dma.c **** 
 555:Drivers/STM32F1xx_HAL_Driver/Src/stm32f1xx_hal_dma.c ****       /* Process Unlocked */
 556:Drivers/STM32F1xx_HAL_Driver/Src/stm32f1xx_hal_dma.c ****       __HAL_UNLOCK(hdma);
 1686              		.loc 1 556 7
 1687 0390 FB68     		ldr	r3, [r7, #12]
 1688 0392 0022     		movs	r2, #0
 1689 0394 83F82020 		strb	r2, [r3, #32]
 557:Drivers/STM32F1xx_HAL_Driver/Src/stm32f1xx_hal_dma.c **** 
 558:Drivers/STM32F1xx_HAL_Driver/Src/stm32f1xx_hal_dma.c ****       return HAL_ERROR;
 1690              		.loc 1 558 14
 1691 0398 0123     		movs	r3, #1
 1692 039a D0E1     		b	.L83
 1693              	.L178:
 559:Drivers/STM32F1xx_HAL_Driver/Src/stm32f1xx_hal_dma.c ****     }
 560:Drivers/STM32F1xx_HAL_Driver/Src/stm32f1xx_hal_dma.c ****     /* Check for the Timeout */
 561:Drivers/STM32F1xx_HAL_Driver/Src/stm32f1xx_hal_dma.c ****     if(Timeout != HAL_MAX_DELAY)
 1694              		.loc 1 561 7
 1695 039c 7B68     		ldr	r3, [r7, #4]
 1696 039e B3F1FF3F 		cmp	r3, #-1
 1697 03a2 1AD0     		beq	.L131
 562:Drivers/STM32F1xx_HAL_Driver/Src/stm32f1xx_hal_dma.c ****     {
 563:Drivers/STM32F1xx_HAL_Driver/Src/stm32f1xx_hal_dma.c ****       if((Timeout == 0U) || ((HAL_GetTick() - tickstart) > Timeout))
 1698              		.loc 1 563 9
 1699 03a4 7B68     		ldr	r3, [r7, #4]
 1700 03a6 002B     		cmp	r3, #0
 1701 03a8 07D0     		beq	.L179
 1702              		.loc 1 563 31 discriminator 1
 1703 03aa FFF7FEFF 		bl	HAL_GetTick
 1704 03ae 0246     		mov	r2, r0
 1705              		.loc 1 563 45 discriminator 1
 1706 03b0 3B69     		ldr	r3, [r7, #16]
 1707 03b2 D31A     		subs	r3, r2, r3
 1708              		.loc 1 563 26 discriminator 1
 1709 03b4 7A68     		ldr	r2, [r7, #4]
 1710 03b6 9A42     		cmp	r2, r3
 1711 03b8 0FD2     		bcs	.L131
 1712              	.L179:
 564:Drivers/STM32F1xx_HAL_Driver/Src/stm32f1xx_hal_dma.c ****       {
 565:Drivers/STM32F1xx_HAL_Driver/Src/stm32f1xx_hal_dma.c ****         /* Update error code */
 566:Drivers/STM32F1xx_HAL_Driver/Src/stm32f1xx_hal_dma.c ****         SET_BIT(hdma->ErrorCode, HAL_DMA_ERROR_TIMEOUT);
 1713              		.loc 1 566 9
 1714 03ba FB68     		ldr	r3, [r7, #12]
 1715 03bc 9B6B     		ldr	r3, [r3, #56]
 1716 03be 43F02002 		orr	r2, r3, #32
 1717 03c2 FB68     		ldr	r3, [r7, #12]
 1718 03c4 9A63     		str	r2, [r3, #56]
 567:Drivers/STM32F1xx_HAL_Driver/Src/stm32f1xx_hal_dma.c **** 
 568:Drivers/STM32F1xx_HAL_Driver/Src/stm32f1xx_hal_dma.c ****         /* Change the DMA state */
 569:Drivers/STM32F1xx_HAL_Driver/Src/stm32f1xx_hal_dma.c ****         hdma->State = HAL_DMA_STATE_READY;
 1719              		.loc 1 569 21
 1720 03c6 FB68     		ldr	r3, [r7, #12]
ARM GAS  /tmp/ccVx4VbF.s 			page 41


 1721 03c8 0122     		movs	r2, #1
 1722 03ca 83F82120 		strb	r2, [r3, #33]
 570:Drivers/STM32F1xx_HAL_Driver/Src/stm32f1xx_hal_dma.c **** 
 571:Drivers/STM32F1xx_HAL_Driver/Src/stm32f1xx_hal_dma.c ****         /* Process Unlocked */
 572:Drivers/STM32F1xx_HAL_Driver/Src/stm32f1xx_hal_dma.c ****         __HAL_UNLOCK(hdma);
 1723              		.loc 1 572 9
 1724 03ce FB68     		ldr	r3, [r7, #12]
 1725 03d0 0022     		movs	r2, #0
 1726 03d2 83F82020 		strb	r2, [r3, #32]
 573:Drivers/STM32F1xx_HAL_Driver/Src/stm32f1xx_hal_dma.c **** 
 574:Drivers/STM32F1xx_HAL_Driver/Src/stm32f1xx_hal_dma.c ****         return HAL_ERROR;
 1727              		.loc 1 574 16
 1728 03d6 0123     		movs	r3, #1
 1729 03d8 B1E1     		b	.L83
 1730              	.L131:
 540:Drivers/STM32F1xx_HAL_Driver/Src/stm32f1xx_hal_dma.c ****   {
 1731              		.loc 1 540 9
 1732 03da FB68     		ldr	r3, [r7, #12]
 1733 03dc 1B68     		ldr	r3, [r3]
 1734 03de 1A46     		mov	r2, r3
 540:Drivers/STM32F1xx_HAL_Driver/Src/stm32f1xx_hal_dma.c ****   {
 1735              		.loc 1 540 40
 1736 03e0 444B     		ldr	r3, .L278+28
 1737 03e2 9A42     		cmp	r2, r3
 1738 03e4 09D9     		bls	.L180
 540:Drivers/STM32F1xx_HAL_Driver/Src/stm32f1xx_hal_dma.c ****   {
 1739              		.loc 1 540 9 discriminator 1
 1740 03e6 484B     		ldr	r3, .L278+48
 1741 03e8 1A68     		ldr	r2, [r3]
 1742 03ea 7B69     		ldr	r3, [r7, #20]
 1743 03ec 1340     		ands	r3, r3, r2
 540:Drivers/STM32F1xx_HAL_Driver/Src/stm32f1xx_hal_dma.c ****   {
 1744              		.loc 1 540 40 discriminator 1
 1745 03ee 002B     		cmp	r3, #0
 1746 03f0 0CBF     		ite	eq
 1747 03f2 0123     		moveq	r3, #1
 1748 03f4 0023     		movne	r3, #0
 1749 03f6 DBB2     		uxtb	r3, r3
 1750 03f8 08E0     		b	.L181
 1751              	.L180:
 540:Drivers/STM32F1xx_HAL_Driver/Src/stm32f1xx_hal_dma.c ****   {
 1752              		.loc 1 540 9 discriminator 2
 1753 03fa 374B     		ldr	r3, .L278
 1754 03fc 1A68     		ldr	r2, [r3]
 1755 03fe 7B69     		ldr	r3, [r7, #20]
 1756 0400 1340     		ands	r3, r3, r2
 540:Drivers/STM32F1xx_HAL_Driver/Src/stm32f1xx_hal_dma.c ****   {
 1757              		.loc 1 540 40 discriminator 2
 1758 0402 002B     		cmp	r3, #0
 1759 0404 0CBF     		ite	eq
 1760 0406 0123     		moveq	r3, #1
 1761 0408 0023     		movne	r3, #0
 1762 040a DBB2     		uxtb	r3, r3
 1763              	.L181:
 540:Drivers/STM32F1xx_HAL_Driver/Src/stm32f1xx_hal_dma.c ****   {
 1764              		.loc 1 540 8 discriminator 4
 1765 040c 002B     		cmp	r3, #0
ARM GAS  /tmp/ccVx4VbF.s 			page 42


 1766 040e 7FF4D0AE 		bne	.L182
 575:Drivers/STM32F1xx_HAL_Driver/Src/stm32f1xx_hal_dma.c ****       }
 576:Drivers/STM32F1xx_HAL_Driver/Src/stm32f1xx_hal_dma.c ****     }
 577:Drivers/STM32F1xx_HAL_Driver/Src/stm32f1xx_hal_dma.c ****   }
 578:Drivers/STM32F1xx_HAL_Driver/Src/stm32f1xx_hal_dma.c **** 
 579:Drivers/STM32F1xx_HAL_Driver/Src/stm32f1xx_hal_dma.c ****   if(CompleteLevel == HAL_DMA_FULL_TRANSFER)
 1767              		.loc 1 579 5
 1768 0412 BB68     		ldr	r3, [r7, #8]
 1769 0414 002B     		cmp	r3, #0
 1770 0416 40F0D680 		bne	.L183
 580:Drivers/STM32F1xx_HAL_Driver/Src/stm32f1xx_hal_dma.c ****   {
 581:Drivers/STM32F1xx_HAL_Driver/Src/stm32f1xx_hal_dma.c ****     /* Clear the transfer complete flag */
 582:Drivers/STM32F1xx_HAL_Driver/Src/stm32f1xx_hal_dma.c ****     __HAL_DMA_CLEAR_FLAG(hdma, __HAL_DMA_GET_TC_FLAG_INDEX(hdma));
 1771              		.loc 1 582 5
 1772 041a FB68     		ldr	r3, [r7, #12]
 1773 041c 1B68     		ldr	r3, [r3]
 1774 041e 1A46     		mov	r2, r3
 1775 0420 344B     		ldr	r3, .L278+28
 1776 0422 9A42     		cmp	r2, r3
 1777 0424 72D9     		bls	.L184
 1778              		.loc 1 582 5 is_stmt 0 discriminator 1
 1779 0426 FB68     		ldr	r3, [r7, #12]
 1780 0428 1B68     		ldr	r3, [r3]
 1781 042a 2C4A     		ldr	r2, .L278+4
 1782 042c 9342     		cmp	r3, r2
 1783 042e 4FD0     		beq	.L185
 1784              		.loc 1 582 5 discriminator 3
 1785 0430 FB68     		ldr	r3, [r7, #12]
 1786 0432 1B68     		ldr	r3, [r3]
 1787 0434 2A4A     		ldr	r2, .L278+8
 1788 0436 9342     		cmp	r3, r2
 1789 0438 48D0     		beq	.L186
 1790              		.loc 1 582 5 discriminator 5
 1791 043a FB68     		ldr	r3, [r7, #12]
 1792 043c 1B68     		ldr	r3, [r3]
 1793 043e 294A     		ldr	r2, .L278+12
 1794 0440 9342     		cmp	r3, r2
 1795 0442 40D0     		beq	.L187
 1796              		.loc 1 582 5 discriminator 7
 1797 0444 FB68     		ldr	r3, [r7, #12]
 1798 0446 1B68     		ldr	r3, [r3]
 1799 0448 274A     		ldr	r2, .L278+16
 1800 044a 9342     		cmp	r3, r2
 1801 044c 38D0     		beq	.L188
 1802              		.loc 1 582 5 discriminator 9
 1803 044e FB68     		ldr	r3, [r7, #12]
 1804 0450 1B68     		ldr	r3, [r3]
 1805 0452 264A     		ldr	r2, .L278+20
 1806 0454 9342     		cmp	r3, r2
 1807 0456 30D0     		beq	.L189
 1808              		.loc 1 582 5 discriminator 11
 1809 0458 FB68     		ldr	r3, [r7, #12]
 1810 045a 1B68     		ldr	r3, [r3]
 1811 045c 244A     		ldr	r2, .L278+24
 1812 045e 9342     		cmp	r3, r2
 1813 0460 28D0     		beq	.L190
 1814              		.loc 1 582 5 discriminator 13
ARM GAS  /tmp/ccVx4VbF.s 			page 43


 1815 0462 FB68     		ldr	r3, [r7, #12]
 1816 0464 1B68     		ldr	r3, [r3]
 1817 0466 234A     		ldr	r2, .L278+28
 1818 0468 9342     		cmp	r3, r2
 1819 046a 20D0     		beq	.L191
 1820              		.loc 1 582 5 discriminator 15
 1821 046c FB68     		ldr	r3, [r7, #12]
 1822 046e 1B68     		ldr	r3, [r3]
 1823 0470 214A     		ldr	r2, .L278+32
 1824 0472 9342     		cmp	r3, r2
 1825 0474 19D0     		beq	.L192
 1826              		.loc 1 582 5 discriminator 17
 1827 0476 FB68     		ldr	r3, [r7, #12]
 1828 0478 1B68     		ldr	r3, [r3]
 1829 047a 204A     		ldr	r2, .L278+36
 1830 047c 9342     		cmp	r3, r2
 1831 047e 12D0     		beq	.L193
 1832              		.loc 1 582 5 discriminator 19
 1833 0480 FB68     		ldr	r3, [r7, #12]
 1834 0482 1B68     		ldr	r3, [r3]
 1835 0484 1E4A     		ldr	r2, .L278+40
 1836 0486 9342     		cmp	r3, r2
 1837 0488 0AD0     		beq	.L194
 1838              		.loc 1 582 5 discriminator 21
 1839 048a FB68     		ldr	r3, [r7, #12]
 1840 048c 1B68     		ldr	r3, [r3]
 1841 048e 1D4A     		ldr	r2, .L278+44
 1842 0490 9342     		cmp	r3, r2
 1843 0492 02D1     		bne	.L195
 1844              		.loc 1 582 5 discriminator 23
 1845 0494 4FF40053 		mov	r3, #8192
 1846 0498 1BE0     		b	.L206
 1847              	.L195:
 1848              		.loc 1 582 5 discriminator 24
 1849 049a 4FF40033 		mov	r3, #131072
 1850 049e 18E0     		b	.L206
 1851              	.L194:
 1852              		.loc 1 582 5 discriminator 22
 1853 04a0 4FF40073 		mov	r3, #512
 1854 04a4 15E0     		b	.L206
 1855              	.L193:
 1856              		.loc 1 582 5 discriminator 20
 1857 04a6 2023     		movs	r3, #32
 1858 04a8 13E0     		b	.L206
 1859              	.L192:
 1860              		.loc 1 582 5 discriminator 18
 1861 04aa 0223     		movs	r3, #2
 1862 04ac 11E0     		b	.L206
 1863              	.L191:
 1864              		.loc 1 582 5 discriminator 16
 1865 04ae 4FF00073 		mov	r3, #33554432
 1866 04b2 0EE0     		b	.L206
 1867              	.L190:
 1868              		.loc 1 582 5 discriminator 14
 1869 04b4 4FF40013 		mov	r3, #2097152
 1870 04b8 0BE0     		b	.L206
 1871              	.L189:
ARM GAS  /tmp/ccVx4VbF.s 			page 44


 1872              		.loc 1 582 5 discriminator 12
 1873 04ba 4FF40033 		mov	r3, #131072
 1874 04be 08E0     		b	.L206
 1875              	.L188:
 1876              		.loc 1 582 5 discriminator 10
 1877 04c0 4FF40053 		mov	r3, #8192
 1878 04c4 05E0     		b	.L206
 1879              	.L187:
 1880              		.loc 1 582 5 discriminator 8
 1881 04c6 4FF40073 		mov	r3, #512
 1882 04ca 02E0     		b	.L206
 1883              	.L186:
 1884              		.loc 1 582 5 discriminator 6
 1885 04cc 2023     		movs	r3, #32
 1886 04ce 00E0     		b	.L206
 1887              	.L185:
 1888              		.loc 1 582 5 discriminator 4
 1889 04d0 0223     		movs	r3, #2
 1890              	.L206:
 1891              		.loc 1 582 5 discriminator 46
 1892 04d2 0D4A     		ldr	r2, .L278+48
 1893 04d4 5360     		str	r3, [r2, #4]
 1894 04d6 71E0     		b	.L207
 1895              	.L279:
 1896              		.align	2
 1897              	.L278:
 1898 04d8 00000240 		.word	1073872896
 1899 04dc 08000240 		.word	1073872904
 1900 04e0 1C000240 		.word	1073872924
 1901 04e4 30000240 		.word	1073872944
 1902 04e8 44000240 		.word	1073872964
 1903 04ec 58000240 		.word	1073872984
 1904 04f0 6C000240 		.word	1073873004
 1905 04f4 80000240 		.word	1073873024
 1906 04f8 08040240 		.word	1073873928
 1907 04fc 1C040240 		.word	1073873948
 1908 0500 30040240 		.word	1073873968
 1909 0504 44040240 		.word	1073873988
 1910 0508 00040240 		.word	1073873920
 1911              	.L184:
 1912              		.loc 1 582 5 discriminator 2
 1913 050c FB68     		ldr	r3, [r7, #12]
 1914 050e 1B68     		ldr	r3, [r3]
 1915 0510 8D4A     		ldr	r2, .L280
 1916 0512 9342     		cmp	r3, r2
 1917 0514 4FD0     		beq	.L208
 1918              		.loc 1 582 5 discriminator 47
 1919 0516 FB68     		ldr	r3, [r7, #12]
 1920 0518 1B68     		ldr	r3, [r3]
 1921 051a 8C4A     		ldr	r2, .L280+4
 1922 051c 9342     		cmp	r3, r2
 1923 051e 48D0     		beq	.L209
 1924              		.loc 1 582 5 discriminator 49
 1925 0520 FB68     		ldr	r3, [r7, #12]
 1926 0522 1B68     		ldr	r3, [r3]
 1927 0524 8A4A     		ldr	r2, .L280+8
 1928 0526 9342     		cmp	r3, r2
ARM GAS  /tmp/ccVx4VbF.s 			page 45


 1929 0528 40D0     		beq	.L210
 1930              		.loc 1 582 5 discriminator 51
 1931 052a FB68     		ldr	r3, [r7, #12]
 1932 052c 1B68     		ldr	r3, [r3]
 1933 052e 894A     		ldr	r2, .L280+12
 1934 0530 9342     		cmp	r3, r2
 1935 0532 38D0     		beq	.L211
 1936              		.loc 1 582 5 discriminator 53
 1937 0534 FB68     		ldr	r3, [r7, #12]
 1938 0536 1B68     		ldr	r3, [r3]
 1939 0538 874A     		ldr	r2, .L280+16
 1940 053a 9342     		cmp	r3, r2
 1941 053c 30D0     		beq	.L212
 1942              		.loc 1 582 5 discriminator 55
 1943 053e FB68     		ldr	r3, [r7, #12]
 1944 0540 1B68     		ldr	r3, [r3]
 1945 0542 864A     		ldr	r2, .L280+20
 1946 0544 9342     		cmp	r3, r2
 1947 0546 28D0     		beq	.L213
 1948              		.loc 1 582 5 discriminator 57
 1949 0548 FB68     		ldr	r3, [r7, #12]
 1950 054a 1B68     		ldr	r3, [r3]
 1951 054c 844A     		ldr	r2, .L280+24
 1952 054e 9342     		cmp	r3, r2
 1953 0550 20D0     		beq	.L214
 1954              		.loc 1 582 5 discriminator 59
 1955 0552 FB68     		ldr	r3, [r7, #12]
 1956 0554 1B68     		ldr	r3, [r3]
 1957 0556 834A     		ldr	r2, .L280+28
 1958 0558 9342     		cmp	r3, r2
 1959 055a 19D0     		beq	.L215
 1960              		.loc 1 582 5 discriminator 61
 1961 055c FB68     		ldr	r3, [r7, #12]
 1962 055e 1B68     		ldr	r3, [r3]
 1963 0560 814A     		ldr	r2, .L280+32
 1964 0562 9342     		cmp	r3, r2
 1965 0564 12D0     		beq	.L216
 1966              		.loc 1 582 5 discriminator 63
 1967 0566 FB68     		ldr	r3, [r7, #12]
 1968 0568 1B68     		ldr	r3, [r3]
 1969 056a 804A     		ldr	r2, .L280+36
 1970 056c 9342     		cmp	r3, r2
 1971 056e 0AD0     		beq	.L217
 1972              		.loc 1 582 5 discriminator 65
 1973 0570 FB68     		ldr	r3, [r7, #12]
 1974 0572 1B68     		ldr	r3, [r3]
 1975 0574 7E4A     		ldr	r2, .L280+40
 1976 0576 9342     		cmp	r3, r2
 1977 0578 02D1     		bne	.L218
 1978              		.loc 1 582 5 discriminator 67
 1979 057a 4FF40053 		mov	r3, #8192
 1980 057e 1BE0     		b	.L229
 1981              	.L218:
 1982              		.loc 1 582 5 discriminator 68
 1983 0580 4FF40033 		mov	r3, #131072
 1984 0584 18E0     		b	.L229
 1985              	.L217:
ARM GAS  /tmp/ccVx4VbF.s 			page 46


 1986              		.loc 1 582 5 discriminator 66
 1987 0586 4FF40073 		mov	r3, #512
 1988 058a 15E0     		b	.L229
 1989              	.L216:
 1990              		.loc 1 582 5 discriminator 64
 1991 058c 2023     		movs	r3, #32
 1992 058e 13E0     		b	.L229
 1993              	.L215:
 1994              		.loc 1 582 5 discriminator 62
 1995 0590 0223     		movs	r3, #2
 1996 0592 11E0     		b	.L229
 1997              	.L214:
 1998              		.loc 1 582 5 discriminator 60
 1999 0594 4FF00073 		mov	r3, #33554432
 2000 0598 0EE0     		b	.L229
 2001              	.L213:
 2002              		.loc 1 582 5 discriminator 58
 2003 059a 4FF40013 		mov	r3, #2097152
 2004 059e 0BE0     		b	.L229
 2005              	.L212:
 2006              		.loc 1 582 5 discriminator 56
 2007 05a0 4FF40033 		mov	r3, #131072
 2008 05a4 08E0     		b	.L229
 2009              	.L211:
 2010              		.loc 1 582 5 discriminator 54
 2011 05a6 4FF40053 		mov	r3, #8192
 2012 05aa 05E0     		b	.L229
 2013              	.L210:
 2014              		.loc 1 582 5 discriminator 52
 2015 05ac 4FF40073 		mov	r3, #512
 2016 05b0 02E0     		b	.L229
 2017              	.L209:
 2018              		.loc 1 582 5 discriminator 50
 2019 05b2 2023     		movs	r3, #32
 2020 05b4 00E0     		b	.L229
 2021              	.L208:
 2022              		.loc 1 582 5 discriminator 48
 2023 05b6 0223     		movs	r3, #2
 2024              	.L229:
 2025              		.loc 1 582 5 discriminator 90
 2026 05b8 6E4A     		ldr	r2, .L280+44
 2027 05ba 5360     		str	r3, [r2, #4]
 2028              	.L207:
 583:Drivers/STM32F1xx_HAL_Driver/Src/stm32f1xx_hal_dma.c **** 
 584:Drivers/STM32F1xx_HAL_Driver/Src/stm32f1xx_hal_dma.c ****     /* The selected Channelx EN bit is cleared (DMA is disabled and
 585:Drivers/STM32F1xx_HAL_Driver/Src/stm32f1xx_hal_dma.c ****     all transfers are complete) */
 586:Drivers/STM32F1xx_HAL_Driver/Src/stm32f1xx_hal_dma.c ****     hdma->State = HAL_DMA_STATE_READY;
 2029              		.loc 1 586 17 is_stmt 1
 2030 05bc FB68     		ldr	r3, [r7, #12]
 2031 05be 0122     		movs	r2, #1
 2032 05c0 83F82120 		strb	r2, [r3, #33]
 2033 05c4 B6E0     		b	.L230
 2034              	.L183:
 587:Drivers/STM32F1xx_HAL_Driver/Src/stm32f1xx_hal_dma.c ****   }
 588:Drivers/STM32F1xx_HAL_Driver/Src/stm32f1xx_hal_dma.c ****   else
 589:Drivers/STM32F1xx_HAL_Driver/Src/stm32f1xx_hal_dma.c ****   {
 590:Drivers/STM32F1xx_HAL_Driver/Src/stm32f1xx_hal_dma.c ****     /* Clear the half transfer complete flag */
ARM GAS  /tmp/ccVx4VbF.s 			page 47


 591:Drivers/STM32F1xx_HAL_Driver/Src/stm32f1xx_hal_dma.c ****     __HAL_DMA_CLEAR_FLAG(hdma, __HAL_DMA_GET_HT_FLAG_INDEX(hdma));
 2035              		.loc 1 591 5
 2036 05c6 FB68     		ldr	r3, [r7, #12]
 2037 05c8 1B68     		ldr	r3, [r3]
 2038 05ca 1A46     		mov	r2, r3
 2039 05cc 644B     		ldr	r3, .L280+24
 2040 05ce 9A42     		cmp	r2, r3
 2041 05d0 58D9     		bls	.L231
 2042              		.loc 1 591 5 is_stmt 0 discriminator 1
 2043 05d2 FB68     		ldr	r3, [r7, #12]
 2044 05d4 1B68     		ldr	r3, [r3]
 2045 05d6 5C4A     		ldr	r2, .L280
 2046 05d8 9342     		cmp	r3, r2
 2047 05da 4FD0     		beq	.L232
 2048              		.loc 1 591 5 discriminator 3
 2049 05dc FB68     		ldr	r3, [r7, #12]
 2050 05de 1B68     		ldr	r3, [r3]
 2051 05e0 5A4A     		ldr	r2, .L280+4
 2052 05e2 9342     		cmp	r3, r2
 2053 05e4 48D0     		beq	.L233
 2054              		.loc 1 591 5 discriminator 5
 2055 05e6 FB68     		ldr	r3, [r7, #12]
 2056 05e8 1B68     		ldr	r3, [r3]
 2057 05ea 594A     		ldr	r2, .L280+8
 2058 05ec 9342     		cmp	r3, r2
 2059 05ee 40D0     		beq	.L234
 2060              		.loc 1 591 5 discriminator 7
 2061 05f0 FB68     		ldr	r3, [r7, #12]
 2062 05f2 1B68     		ldr	r3, [r3]
 2063 05f4 574A     		ldr	r2, .L280+12
 2064 05f6 9342     		cmp	r3, r2
 2065 05f8 38D0     		beq	.L235
 2066              		.loc 1 591 5 discriminator 9
 2067 05fa FB68     		ldr	r3, [r7, #12]
 2068 05fc 1B68     		ldr	r3, [r3]
 2069 05fe 564A     		ldr	r2, .L280+16
 2070 0600 9342     		cmp	r3, r2
 2071 0602 30D0     		beq	.L236
 2072              		.loc 1 591 5 discriminator 11
 2073 0604 FB68     		ldr	r3, [r7, #12]
 2074 0606 1B68     		ldr	r3, [r3]
 2075 0608 544A     		ldr	r2, .L280+20
 2076 060a 9342     		cmp	r3, r2
 2077 060c 28D0     		beq	.L237
 2078              		.loc 1 591 5 discriminator 13
 2079 060e FB68     		ldr	r3, [r7, #12]
 2080 0610 1B68     		ldr	r3, [r3]
 2081 0612 534A     		ldr	r2, .L280+24
 2082 0614 9342     		cmp	r3, r2
 2083 0616 20D0     		beq	.L238
 2084              		.loc 1 591 5 discriminator 15
 2085 0618 FB68     		ldr	r3, [r7, #12]
 2086 061a 1B68     		ldr	r3, [r3]
 2087 061c 514A     		ldr	r2, .L280+28
 2088 061e 9342     		cmp	r3, r2
 2089 0620 19D0     		beq	.L239
 2090              		.loc 1 591 5 discriminator 17
ARM GAS  /tmp/ccVx4VbF.s 			page 48


 2091 0622 FB68     		ldr	r3, [r7, #12]
 2092 0624 1B68     		ldr	r3, [r3]
 2093 0626 504A     		ldr	r2, .L280+32
 2094 0628 9342     		cmp	r3, r2
 2095 062a 12D0     		beq	.L240
 2096              		.loc 1 591 5 discriminator 19
 2097 062c FB68     		ldr	r3, [r7, #12]
 2098 062e 1B68     		ldr	r3, [r3]
 2099 0630 4E4A     		ldr	r2, .L280+36
 2100 0632 9342     		cmp	r3, r2
 2101 0634 0AD0     		beq	.L241
 2102              		.loc 1 591 5 discriminator 21
 2103 0636 FB68     		ldr	r3, [r7, #12]
 2104 0638 1B68     		ldr	r3, [r3]
 2105 063a 4D4A     		ldr	r2, .L280+40
 2106 063c 9342     		cmp	r3, r2
 2107 063e 02D1     		bne	.L242
 2108              		.loc 1 591 5 discriminator 23
 2109 0640 4FF48043 		mov	r3, #16384
 2110 0644 1BE0     		b	.L253
 2111              	.L242:
 2112              		.loc 1 591 5 discriminator 24
 2113 0646 4FF48023 		mov	r3, #262144
 2114 064a 18E0     		b	.L253
 2115              	.L241:
 2116              		.loc 1 591 5 discriminator 22
 2117 064c 4FF48063 		mov	r3, #1024
 2118 0650 15E0     		b	.L253
 2119              	.L240:
 2120              		.loc 1 591 5 discriminator 20
 2121 0652 4023     		movs	r3, #64
 2122 0654 13E0     		b	.L253
 2123              	.L239:
 2124              		.loc 1 591 5 discriminator 18
 2125 0656 0423     		movs	r3, #4
 2126 0658 11E0     		b	.L253
 2127              	.L238:
 2128              		.loc 1 591 5 discriminator 16
 2129 065a 4FF08063 		mov	r3, #67108864
 2130 065e 0EE0     		b	.L253
 2131              	.L237:
 2132              		.loc 1 591 5 discriminator 14
 2133 0660 4FF48003 		mov	r3, #4194304
 2134 0664 0BE0     		b	.L253
 2135              	.L236:
 2136              		.loc 1 591 5 discriminator 12
 2137 0666 4FF48023 		mov	r3, #262144
 2138 066a 08E0     		b	.L253
 2139              	.L235:
 2140              		.loc 1 591 5 discriminator 10
 2141 066c 4FF48043 		mov	r3, #16384
 2142 0670 05E0     		b	.L253
 2143              	.L234:
 2144              		.loc 1 591 5 discriminator 8
 2145 0672 4FF48063 		mov	r3, #1024
 2146 0676 02E0     		b	.L253
 2147              	.L233:
ARM GAS  /tmp/ccVx4VbF.s 			page 49


 2148              		.loc 1 591 5 discriminator 6
 2149 0678 4023     		movs	r3, #64
 2150 067a 00E0     		b	.L253
 2151              	.L232:
 2152              		.loc 1 591 5 discriminator 4
 2153 067c 0423     		movs	r3, #4
 2154              	.L253:
 2155              		.loc 1 591 5 discriminator 46
 2156 067e 3E4A     		ldr	r2, .L280+48
 2157 0680 5360     		str	r3, [r2, #4]
 2158 0682 57E0     		b	.L230
 2159              	.L231:
 2160              		.loc 1 591 5 discriminator 2
 2161 0684 FB68     		ldr	r3, [r7, #12]
 2162 0686 1B68     		ldr	r3, [r3]
 2163 0688 2F4A     		ldr	r2, .L280
 2164 068a 9342     		cmp	r3, r2
 2165 068c 4FD0     		beq	.L254
 2166              		.loc 1 591 5 discriminator 47
 2167 068e FB68     		ldr	r3, [r7, #12]
 2168 0690 1B68     		ldr	r3, [r3]
 2169 0692 2E4A     		ldr	r2, .L280+4
 2170 0694 9342     		cmp	r3, r2
 2171 0696 48D0     		beq	.L255
 2172              		.loc 1 591 5 discriminator 49
 2173 0698 FB68     		ldr	r3, [r7, #12]
 2174 069a 1B68     		ldr	r3, [r3]
 2175 069c 2C4A     		ldr	r2, .L280+8
 2176 069e 9342     		cmp	r3, r2
 2177 06a0 40D0     		beq	.L256
 2178              		.loc 1 591 5 discriminator 51
 2179 06a2 FB68     		ldr	r3, [r7, #12]
 2180 06a4 1B68     		ldr	r3, [r3]
 2181 06a6 2B4A     		ldr	r2, .L280+12
 2182 06a8 9342     		cmp	r3, r2
 2183 06aa 38D0     		beq	.L257
 2184              		.loc 1 591 5 discriminator 53
 2185 06ac FB68     		ldr	r3, [r7, #12]
 2186 06ae 1B68     		ldr	r3, [r3]
 2187 06b0 294A     		ldr	r2, .L280+16
 2188 06b2 9342     		cmp	r3, r2
 2189 06b4 30D0     		beq	.L258
 2190              		.loc 1 591 5 discriminator 55
 2191 06b6 FB68     		ldr	r3, [r7, #12]
 2192 06b8 1B68     		ldr	r3, [r3]
 2193 06ba 284A     		ldr	r2, .L280+20
 2194 06bc 9342     		cmp	r3, r2
 2195 06be 28D0     		beq	.L259
 2196              		.loc 1 591 5 discriminator 57
 2197 06c0 FB68     		ldr	r3, [r7, #12]
 2198 06c2 1B68     		ldr	r3, [r3]
 2199 06c4 264A     		ldr	r2, .L280+24
 2200 06c6 9342     		cmp	r3, r2
 2201 06c8 20D0     		beq	.L260
 2202              		.loc 1 591 5 discriminator 59
 2203 06ca FB68     		ldr	r3, [r7, #12]
 2204 06cc 1B68     		ldr	r3, [r3]
ARM GAS  /tmp/ccVx4VbF.s 			page 50


 2205 06ce 254A     		ldr	r2, .L280+28
 2206 06d0 9342     		cmp	r3, r2
 2207 06d2 19D0     		beq	.L261
 2208              		.loc 1 591 5 discriminator 61
 2209 06d4 FB68     		ldr	r3, [r7, #12]
 2210 06d6 1B68     		ldr	r3, [r3]
 2211 06d8 234A     		ldr	r2, .L280+32
 2212 06da 9342     		cmp	r3, r2
 2213 06dc 12D0     		beq	.L262
 2214              		.loc 1 591 5 discriminator 63
 2215 06de FB68     		ldr	r3, [r7, #12]
 2216 06e0 1B68     		ldr	r3, [r3]
 2217 06e2 224A     		ldr	r2, .L280+36
 2218 06e4 9342     		cmp	r3, r2
 2219 06e6 0AD0     		beq	.L263
 2220              		.loc 1 591 5 discriminator 65
 2221 06e8 FB68     		ldr	r3, [r7, #12]
 2222 06ea 1B68     		ldr	r3, [r3]
 2223 06ec 204A     		ldr	r2, .L280+40
 2224 06ee 9342     		cmp	r3, r2
 2225 06f0 02D1     		bne	.L264
 2226              		.loc 1 591 5 discriminator 67
 2227 06f2 4FF48043 		mov	r3, #16384
 2228 06f6 1BE0     		b	.L275
 2229              	.L264:
 2230              		.loc 1 591 5 discriminator 68
 2231 06f8 4FF48023 		mov	r3, #262144
 2232 06fc 18E0     		b	.L275
 2233              	.L263:
 2234              		.loc 1 591 5 discriminator 66
 2235 06fe 4FF48063 		mov	r3, #1024
 2236 0702 15E0     		b	.L275
 2237              	.L262:
 2238              		.loc 1 591 5 discriminator 64
 2239 0704 4023     		movs	r3, #64
 2240 0706 13E0     		b	.L275
 2241              	.L261:
 2242              		.loc 1 591 5 discriminator 62
 2243 0708 0423     		movs	r3, #4
 2244 070a 11E0     		b	.L275
 2245              	.L260:
 2246              		.loc 1 591 5 discriminator 60
 2247 070c 4FF08063 		mov	r3, #67108864
 2248 0710 0EE0     		b	.L275
 2249              	.L259:
 2250              		.loc 1 591 5 discriminator 58
 2251 0712 4FF48003 		mov	r3, #4194304
 2252 0716 0BE0     		b	.L275
 2253              	.L258:
 2254              		.loc 1 591 5 discriminator 56
 2255 0718 4FF48023 		mov	r3, #262144
 2256 071c 08E0     		b	.L275
 2257              	.L257:
 2258              		.loc 1 591 5 discriminator 54
 2259 071e 4FF48043 		mov	r3, #16384
 2260 0722 05E0     		b	.L275
 2261              	.L256:
ARM GAS  /tmp/ccVx4VbF.s 			page 51


 2262              		.loc 1 591 5 discriminator 52
 2263 0724 4FF48063 		mov	r3, #1024
 2264 0728 02E0     		b	.L275
 2265              	.L255:
 2266              		.loc 1 591 5 discriminator 50
 2267 072a 4023     		movs	r3, #64
 2268 072c 00E0     		b	.L275
 2269              	.L254:
 2270              		.loc 1 591 5 discriminator 48
 2271 072e 0423     		movs	r3, #4
 2272              	.L275:
 2273              		.loc 1 591 5 discriminator 90
 2274 0730 104A     		ldr	r2, .L280+44
 2275 0732 5360     		str	r3, [r2, #4]
 2276              	.L230:
 592:Drivers/STM32F1xx_HAL_Driver/Src/stm32f1xx_hal_dma.c ****   }
 593:Drivers/STM32F1xx_HAL_Driver/Src/stm32f1xx_hal_dma.c ****   
 594:Drivers/STM32F1xx_HAL_Driver/Src/stm32f1xx_hal_dma.c ****   /* Process unlocked */
 595:Drivers/STM32F1xx_HAL_Driver/Src/stm32f1xx_hal_dma.c ****   __HAL_UNLOCK(hdma);
 2277              		.loc 1 595 3 is_stmt 1
 2278 0734 FB68     		ldr	r3, [r7, #12]
 2279 0736 0022     		movs	r2, #0
 2280 0738 83F82020 		strb	r2, [r3, #32]
 596:Drivers/STM32F1xx_HAL_Driver/Src/stm32f1xx_hal_dma.c **** 
 597:Drivers/STM32F1xx_HAL_Driver/Src/stm32f1xx_hal_dma.c ****   return HAL_OK;
 2281              		.loc 1 597 10
 2282 073c 0023     		movs	r3, #0
 2283              	.L83:
 598:Drivers/STM32F1xx_HAL_Driver/Src/stm32f1xx_hal_dma.c **** }
 2284              		.loc 1 598 1
 2285 073e 1846     		mov	r0, r3
 2286 0740 1837     		adds	r7, r7, #24
 2287              	.LCFI36:
 2288              		.cfi_def_cfa_offset 8
 2289 0742 BD46     		mov	sp, r7
 2290              	.LCFI37:
 2291              		.cfi_def_cfa_register 13
 2292              		@ sp needed
 2293 0744 80BD     		pop	{r7, pc}
 2294              	.L281:
 2295 0746 00BF     		.align	2
 2296              	.L280:
 2297 0748 08000240 		.word	1073872904
 2298 074c 1C000240 		.word	1073872924
 2299 0750 30000240 		.word	1073872944
 2300 0754 44000240 		.word	1073872964
 2301 0758 58000240 		.word	1073872984
 2302 075c 6C000240 		.word	1073873004
 2303 0760 80000240 		.word	1073873024
 2304 0764 08040240 		.word	1073873928
 2305 0768 1C040240 		.word	1073873948
 2306 076c 30040240 		.word	1073873968
 2307 0770 44040240 		.word	1073873988
 2308 0774 00000240 		.word	1073872896
 2309 0778 00040240 		.word	1073873920
 2310              		.cfi_endproc
 2311              	.LFE72:
ARM GAS  /tmp/ccVx4VbF.s 			page 52


 2313              		.section	.text.HAL_DMA_IRQHandler,"ax",%progbits
 2314              		.align	1
 2315              		.global	HAL_DMA_IRQHandler
 2316              		.syntax unified
 2317              		.thumb
 2318              		.thumb_func
 2319              		.fpu softvfp
 2321              	HAL_DMA_IRQHandler:
 2322              	.LFB73:
 599:Drivers/STM32F1xx_HAL_Driver/Src/stm32f1xx_hal_dma.c **** 
 600:Drivers/STM32F1xx_HAL_Driver/Src/stm32f1xx_hal_dma.c **** /**
 601:Drivers/STM32F1xx_HAL_Driver/Src/stm32f1xx_hal_dma.c ****   * @brief  Handles DMA interrupt request.
 602:Drivers/STM32F1xx_HAL_Driver/Src/stm32f1xx_hal_dma.c ****   * @param  hdma: pointer to a DMA_HandleTypeDef structure that contains
 603:Drivers/STM32F1xx_HAL_Driver/Src/stm32f1xx_hal_dma.c ****   *               the configuration information for the specified DMA Channel.  
 604:Drivers/STM32F1xx_HAL_Driver/Src/stm32f1xx_hal_dma.c ****   * @retval None
 605:Drivers/STM32F1xx_HAL_Driver/Src/stm32f1xx_hal_dma.c ****   */
 606:Drivers/STM32F1xx_HAL_Driver/Src/stm32f1xx_hal_dma.c **** void HAL_DMA_IRQHandler(DMA_HandleTypeDef *hdma)
 607:Drivers/STM32F1xx_HAL_Driver/Src/stm32f1xx_hal_dma.c **** {
 2323              		.loc 1 607 1
 2324              		.cfi_startproc
 2325              		@ args = 0, pretend = 0, frame = 16
 2326              		@ frame_needed = 1, uses_anonymous_args = 0
 2327 0000 80B5     		push	{r7, lr}
 2328              	.LCFI38:
 2329              		.cfi_def_cfa_offset 8
 2330              		.cfi_offset 7, -8
 2331              		.cfi_offset 14, -4
 2332 0002 84B0     		sub	sp, sp, #16
 2333              	.LCFI39:
 2334              		.cfi_def_cfa_offset 24
 2335 0004 00AF     		add	r7, sp, #0
 2336              	.LCFI40:
 2337              		.cfi_def_cfa_register 7
 2338 0006 7860     		str	r0, [r7, #4]
 608:Drivers/STM32F1xx_HAL_Driver/Src/stm32f1xx_hal_dma.c ****   uint32_t flag_it = hdma->DmaBaseAddress->ISR;
 2339              		.loc 1 608 26
 2340 0008 7B68     		ldr	r3, [r7, #4]
 2341 000a DB6B     		ldr	r3, [r3, #60]
 2342              		.loc 1 608 12
 2343 000c 1B68     		ldr	r3, [r3]
 2344 000e FB60     		str	r3, [r7, #12]
 609:Drivers/STM32F1xx_HAL_Driver/Src/stm32f1xx_hal_dma.c ****   uint32_t source_it = hdma->Instance->CCR;
 2345              		.loc 1 609 28
 2346 0010 7B68     		ldr	r3, [r7, #4]
 2347 0012 1B68     		ldr	r3, [r3]
 2348              		.loc 1 609 12
 2349 0014 1B68     		ldr	r3, [r3]
 2350 0016 BB60     		str	r3, [r7, #8]
 610:Drivers/STM32F1xx_HAL_Driver/Src/stm32f1xx_hal_dma.c ****   
 611:Drivers/STM32F1xx_HAL_Driver/Src/stm32f1xx_hal_dma.c ****   /* Half Transfer Complete Interrupt management ******************************/
 612:Drivers/STM32F1xx_HAL_Driver/Src/stm32f1xx_hal_dma.c ****   if (((flag_it & (DMA_FLAG_HT1 << hdma->ChannelIndex)) != RESET) && ((source_it & DMA_IT_HT) != RE
 2351              		.loc 1 612 40
 2352 0018 7B68     		ldr	r3, [r7, #4]
 2353 001a 1B6C     		ldr	r3, [r3, #64]
 2354              		.loc 1 612 33
 2355 001c 0422     		movs	r2, #4
 2356 001e 9A40     		lsls	r2, r2, r3
ARM GAS  /tmp/ccVx4VbF.s 			page 53


 2357              		.loc 1 612 17
 2358 0020 FB68     		ldr	r3, [r7, #12]
 2359 0022 1340     		ands	r3, r3, r2
 2360              		.loc 1 612 6
 2361 0024 002B     		cmp	r3, #0
 2362 0026 00F0D680 		beq	.L283
 2363              		.loc 1 612 82 discriminator 1
 2364 002a BB68     		ldr	r3, [r7, #8]
 2365 002c 03F00403 		and	r3, r3, #4
 2366              		.loc 1 612 67 discriminator 1
 2367 0030 002B     		cmp	r3, #0
 2368 0032 00F0D080 		beq	.L283
 613:Drivers/STM32F1xx_HAL_Driver/Src/stm32f1xx_hal_dma.c ****   {
 614:Drivers/STM32F1xx_HAL_Driver/Src/stm32f1xx_hal_dma.c ****     /* Disable the half transfer interrupt if the DMA mode is not CIRCULAR */
 615:Drivers/STM32F1xx_HAL_Driver/Src/stm32f1xx_hal_dma.c ****     if((hdma->Instance->CCR & DMA_CCR_CIRC) == 0U)
 2369              		.loc 1 615 13
 2370 0036 7B68     		ldr	r3, [r7, #4]
 2371 0038 1B68     		ldr	r3, [r3]
 2372              		.loc 1 615 23
 2373 003a 1B68     		ldr	r3, [r3]
 2374              		.loc 1 615 29
 2375 003c 03F02003 		and	r3, r3, #32
 2376              		.loc 1 615 7
 2377 0040 002B     		cmp	r3, #0
 2378 0042 07D1     		bne	.L284
 616:Drivers/STM32F1xx_HAL_Driver/Src/stm32f1xx_hal_dma.c ****     {
 617:Drivers/STM32F1xx_HAL_Driver/Src/stm32f1xx_hal_dma.c ****       /* Disable the half transfer interrupt */
 618:Drivers/STM32F1xx_HAL_Driver/Src/stm32f1xx_hal_dma.c ****       __HAL_DMA_DISABLE_IT(hdma, DMA_IT_HT);
 2379              		.loc 1 618 7
 2380 0044 7B68     		ldr	r3, [r7, #4]
 2381 0046 1B68     		ldr	r3, [r3]
 2382 0048 1A68     		ldr	r2, [r3]
 2383 004a 7B68     		ldr	r3, [r7, #4]
 2384 004c 1B68     		ldr	r3, [r3]
 2385 004e 22F00402 		bic	r2, r2, #4
 2386 0052 1A60     		str	r2, [r3]
 2387              	.L284:
 619:Drivers/STM32F1xx_HAL_Driver/Src/stm32f1xx_hal_dma.c ****     }
 620:Drivers/STM32F1xx_HAL_Driver/Src/stm32f1xx_hal_dma.c ****     /* Clear the half transfer complete flag */
 621:Drivers/STM32F1xx_HAL_Driver/Src/stm32f1xx_hal_dma.c ****     __HAL_DMA_CLEAR_FLAG(hdma, __HAL_DMA_GET_HT_FLAG_INDEX(hdma));
 2388              		.loc 1 621 5
 2389 0054 7B68     		ldr	r3, [r7, #4]
 2390 0056 1B68     		ldr	r3, [r3]
 2391 0058 1A46     		mov	r2, r3
 2392 005a 9B4B     		ldr	r3, .L384
 2393 005c 9A42     		cmp	r2, r3
 2394 005e 58D9     		bls	.L285
 2395              		.loc 1 621 5 is_stmt 0 discriminator 1
 2396 0060 7B68     		ldr	r3, [r7, #4]
 2397 0062 1B68     		ldr	r3, [r3]
 2398 0064 994A     		ldr	r2, .L384+4
 2399 0066 9342     		cmp	r3, r2
 2400 0068 4FD0     		beq	.L286
 2401              		.loc 1 621 5 discriminator 3
 2402 006a 7B68     		ldr	r3, [r7, #4]
 2403 006c 1B68     		ldr	r3, [r3]
 2404 006e 984A     		ldr	r2, .L384+8
ARM GAS  /tmp/ccVx4VbF.s 			page 54


 2405 0070 9342     		cmp	r3, r2
 2406 0072 48D0     		beq	.L287
 2407              		.loc 1 621 5 discriminator 5
 2408 0074 7B68     		ldr	r3, [r7, #4]
 2409 0076 1B68     		ldr	r3, [r3]
 2410 0078 964A     		ldr	r2, .L384+12
 2411 007a 9342     		cmp	r3, r2
 2412 007c 40D0     		beq	.L288
 2413              		.loc 1 621 5 discriminator 7
 2414 007e 7B68     		ldr	r3, [r7, #4]
 2415 0080 1B68     		ldr	r3, [r3]
 2416 0082 954A     		ldr	r2, .L384+16
 2417 0084 9342     		cmp	r3, r2
 2418 0086 38D0     		beq	.L289
 2419              		.loc 1 621 5 discriminator 9
 2420 0088 7B68     		ldr	r3, [r7, #4]
 2421 008a 1B68     		ldr	r3, [r3]
 2422 008c 934A     		ldr	r2, .L384+20
 2423 008e 9342     		cmp	r3, r2
 2424 0090 30D0     		beq	.L290
 2425              		.loc 1 621 5 discriminator 11
 2426 0092 7B68     		ldr	r3, [r7, #4]
 2427 0094 1B68     		ldr	r3, [r3]
 2428 0096 924A     		ldr	r2, .L384+24
 2429 0098 9342     		cmp	r3, r2
 2430 009a 28D0     		beq	.L291
 2431              		.loc 1 621 5 discriminator 13
 2432 009c 7B68     		ldr	r3, [r7, #4]
 2433 009e 1B68     		ldr	r3, [r3]
 2434 00a0 894A     		ldr	r2, .L384
 2435 00a2 9342     		cmp	r3, r2
 2436 00a4 20D0     		beq	.L292
 2437              		.loc 1 621 5 discriminator 15
 2438 00a6 7B68     		ldr	r3, [r7, #4]
 2439 00a8 1B68     		ldr	r3, [r3]
 2440 00aa 8E4A     		ldr	r2, .L384+28
 2441 00ac 9342     		cmp	r3, r2
 2442 00ae 19D0     		beq	.L293
 2443              		.loc 1 621 5 discriminator 17
 2444 00b0 7B68     		ldr	r3, [r7, #4]
 2445 00b2 1B68     		ldr	r3, [r3]
 2446 00b4 8C4A     		ldr	r2, .L384+32
 2447 00b6 9342     		cmp	r3, r2
 2448 00b8 12D0     		beq	.L294
 2449              		.loc 1 621 5 discriminator 19
 2450 00ba 7B68     		ldr	r3, [r7, #4]
 2451 00bc 1B68     		ldr	r3, [r3]
 2452 00be 8B4A     		ldr	r2, .L384+36
 2453 00c0 9342     		cmp	r3, r2
 2454 00c2 0AD0     		beq	.L295
 2455              		.loc 1 621 5 discriminator 21
 2456 00c4 7B68     		ldr	r3, [r7, #4]
 2457 00c6 1B68     		ldr	r3, [r3]
 2458 00c8 894A     		ldr	r2, .L384+40
 2459 00ca 9342     		cmp	r3, r2
 2460 00cc 02D1     		bne	.L296
 2461              		.loc 1 621 5 discriminator 23
ARM GAS  /tmp/ccVx4VbF.s 			page 55


 2462 00ce 4FF48043 		mov	r3, #16384
 2463 00d2 1BE0     		b	.L307
 2464              	.L296:
 2465              		.loc 1 621 5 discriminator 24
 2466 00d4 4FF48023 		mov	r3, #262144
 2467 00d8 18E0     		b	.L307
 2468              	.L295:
 2469              		.loc 1 621 5 discriminator 22
 2470 00da 4FF48063 		mov	r3, #1024
 2471 00de 15E0     		b	.L307
 2472              	.L294:
 2473              		.loc 1 621 5 discriminator 20
 2474 00e0 4023     		movs	r3, #64
 2475 00e2 13E0     		b	.L307
 2476              	.L293:
 2477              		.loc 1 621 5 discriminator 18
 2478 00e4 0423     		movs	r3, #4
 2479 00e6 11E0     		b	.L307
 2480              	.L292:
 2481              		.loc 1 621 5 discriminator 16
 2482 00e8 4FF08063 		mov	r3, #67108864
 2483 00ec 0EE0     		b	.L307
 2484              	.L291:
 2485              		.loc 1 621 5 discriminator 14
 2486 00ee 4FF48003 		mov	r3, #4194304
 2487 00f2 0BE0     		b	.L307
 2488              	.L290:
 2489              		.loc 1 621 5 discriminator 12
 2490 00f4 4FF48023 		mov	r3, #262144
 2491 00f8 08E0     		b	.L307
 2492              	.L289:
 2493              		.loc 1 621 5 discriminator 10
 2494 00fa 4FF48043 		mov	r3, #16384
 2495 00fe 05E0     		b	.L307
 2496              	.L288:
 2497              		.loc 1 621 5 discriminator 8
 2498 0100 4FF48063 		mov	r3, #1024
 2499 0104 02E0     		b	.L307
 2500              	.L287:
 2501              		.loc 1 621 5 discriminator 6
 2502 0106 4023     		movs	r3, #64
 2503 0108 00E0     		b	.L307
 2504              	.L286:
 2505              		.loc 1 621 5 discriminator 4
 2506 010a 0423     		movs	r3, #4
 2507              	.L307:
 2508              		.loc 1 621 5 discriminator 46
 2509 010c 794A     		ldr	r2, .L384+44
 2510 010e 5360     		str	r3, [r2, #4]
 2511 0110 57E0     		b	.L308
 2512              	.L285:
 2513              		.loc 1 621 5 discriminator 2
 2514 0112 7B68     		ldr	r3, [r7, #4]
 2515 0114 1B68     		ldr	r3, [r3]
 2516 0116 6D4A     		ldr	r2, .L384+4
 2517 0118 9342     		cmp	r3, r2
 2518 011a 4FD0     		beq	.L309
ARM GAS  /tmp/ccVx4VbF.s 			page 56


 2519              		.loc 1 621 5 discriminator 47
 2520 011c 7B68     		ldr	r3, [r7, #4]
 2521 011e 1B68     		ldr	r3, [r3]
 2522 0120 6B4A     		ldr	r2, .L384+8
 2523 0122 9342     		cmp	r3, r2
 2524 0124 48D0     		beq	.L310
 2525              		.loc 1 621 5 discriminator 49
 2526 0126 7B68     		ldr	r3, [r7, #4]
 2527 0128 1B68     		ldr	r3, [r3]
 2528 012a 6A4A     		ldr	r2, .L384+12
 2529 012c 9342     		cmp	r3, r2
 2530 012e 40D0     		beq	.L311
 2531              		.loc 1 621 5 discriminator 51
 2532 0130 7B68     		ldr	r3, [r7, #4]
 2533 0132 1B68     		ldr	r3, [r3]
 2534 0134 684A     		ldr	r2, .L384+16
 2535 0136 9342     		cmp	r3, r2
 2536 0138 38D0     		beq	.L312
 2537              		.loc 1 621 5 discriminator 53
 2538 013a 7B68     		ldr	r3, [r7, #4]
 2539 013c 1B68     		ldr	r3, [r3]
 2540 013e 674A     		ldr	r2, .L384+20
 2541 0140 9342     		cmp	r3, r2
 2542 0142 30D0     		beq	.L313
 2543              		.loc 1 621 5 discriminator 55
 2544 0144 7B68     		ldr	r3, [r7, #4]
 2545 0146 1B68     		ldr	r3, [r3]
 2546 0148 654A     		ldr	r2, .L384+24
 2547 014a 9342     		cmp	r3, r2
 2548 014c 28D0     		beq	.L314
 2549              		.loc 1 621 5 discriminator 57
 2550 014e 7B68     		ldr	r3, [r7, #4]
 2551 0150 1B68     		ldr	r3, [r3]
 2552 0152 5D4A     		ldr	r2, .L384
 2553 0154 9342     		cmp	r3, r2
 2554 0156 20D0     		beq	.L315
 2555              		.loc 1 621 5 discriminator 59
 2556 0158 7B68     		ldr	r3, [r7, #4]
 2557 015a 1B68     		ldr	r3, [r3]
 2558 015c 614A     		ldr	r2, .L384+28
 2559 015e 9342     		cmp	r3, r2
 2560 0160 19D0     		beq	.L316
 2561              		.loc 1 621 5 discriminator 61
 2562 0162 7B68     		ldr	r3, [r7, #4]
 2563 0164 1B68     		ldr	r3, [r3]
 2564 0166 604A     		ldr	r2, .L384+32
 2565 0168 9342     		cmp	r3, r2
 2566 016a 12D0     		beq	.L317
 2567              		.loc 1 621 5 discriminator 63
 2568 016c 7B68     		ldr	r3, [r7, #4]
 2569 016e 1B68     		ldr	r3, [r3]
 2570 0170 5E4A     		ldr	r2, .L384+36
 2571 0172 9342     		cmp	r3, r2
 2572 0174 0AD0     		beq	.L318
 2573              		.loc 1 621 5 discriminator 65
 2574 0176 7B68     		ldr	r3, [r7, #4]
 2575 0178 1B68     		ldr	r3, [r3]
ARM GAS  /tmp/ccVx4VbF.s 			page 57


 2576 017a 5D4A     		ldr	r2, .L384+40
 2577 017c 9342     		cmp	r3, r2
 2578 017e 02D1     		bne	.L319
 2579              		.loc 1 621 5 discriminator 67
 2580 0180 4FF48043 		mov	r3, #16384
 2581 0184 1BE0     		b	.L330
 2582              	.L319:
 2583              		.loc 1 621 5 discriminator 68
 2584 0186 4FF48023 		mov	r3, #262144
 2585 018a 18E0     		b	.L330
 2586              	.L318:
 2587              		.loc 1 621 5 discriminator 66
 2588 018c 4FF48063 		mov	r3, #1024
 2589 0190 15E0     		b	.L330
 2590              	.L317:
 2591              		.loc 1 621 5 discriminator 64
 2592 0192 4023     		movs	r3, #64
 2593 0194 13E0     		b	.L330
 2594              	.L316:
 2595              		.loc 1 621 5 discriminator 62
 2596 0196 0423     		movs	r3, #4
 2597 0198 11E0     		b	.L330
 2598              	.L315:
 2599              		.loc 1 621 5 discriminator 60
 2600 019a 4FF08063 		mov	r3, #67108864
 2601 019e 0EE0     		b	.L330
 2602              	.L314:
 2603              		.loc 1 621 5 discriminator 58
 2604 01a0 4FF48003 		mov	r3, #4194304
 2605 01a4 0BE0     		b	.L330
 2606              	.L313:
 2607              		.loc 1 621 5 discriminator 56
 2608 01a6 4FF48023 		mov	r3, #262144
 2609 01aa 08E0     		b	.L330
 2610              	.L312:
 2611              		.loc 1 621 5 discriminator 54
 2612 01ac 4FF48043 		mov	r3, #16384
 2613 01b0 05E0     		b	.L330
 2614              	.L311:
 2615              		.loc 1 621 5 discriminator 52
 2616 01b2 4FF48063 		mov	r3, #1024
 2617 01b6 02E0     		b	.L330
 2618              	.L310:
 2619              		.loc 1 621 5 discriminator 50
 2620 01b8 4023     		movs	r3, #64
 2621 01ba 00E0     		b	.L330
 2622              	.L309:
 2623              		.loc 1 621 5 discriminator 48
 2624 01bc 0423     		movs	r3, #4
 2625              	.L330:
 2626              		.loc 1 621 5 discriminator 90
 2627 01be 4E4A     		ldr	r2, .L384+48
 2628 01c0 5360     		str	r3, [r2, #4]
 2629              	.L308:
 622:Drivers/STM32F1xx_HAL_Driver/Src/stm32f1xx_hal_dma.c **** 
 623:Drivers/STM32F1xx_HAL_Driver/Src/stm32f1xx_hal_dma.c ****     /* DMA peripheral state is not updated in Half Transfer */
 624:Drivers/STM32F1xx_HAL_Driver/Src/stm32f1xx_hal_dma.c ****     /* but in Transfer Complete case */
ARM GAS  /tmp/ccVx4VbF.s 			page 58


 625:Drivers/STM32F1xx_HAL_Driver/Src/stm32f1xx_hal_dma.c **** 
 626:Drivers/STM32F1xx_HAL_Driver/Src/stm32f1xx_hal_dma.c ****     if(hdma->XferHalfCpltCallback != NULL)
 2630              		.loc 1 626 12 is_stmt 1
 2631 01c2 7B68     		ldr	r3, [r7, #4]
 2632 01c4 DB6A     		ldr	r3, [r3, #44]
 2633              		.loc 1 626 7
 2634 01c6 002B     		cmp	r3, #0
 2635 01c8 00F03681 		beq	.L332
 627:Drivers/STM32F1xx_HAL_Driver/Src/stm32f1xx_hal_dma.c ****     {
 628:Drivers/STM32F1xx_HAL_Driver/Src/stm32f1xx_hal_dma.c ****       /* Half transfer callback */
 629:Drivers/STM32F1xx_HAL_Driver/Src/stm32f1xx_hal_dma.c ****       hdma->XferHalfCpltCallback(hdma);
 2636              		.loc 1 629 11
 2637 01cc 7B68     		ldr	r3, [r7, #4]
 2638 01ce DB6A     		ldr	r3, [r3, #44]
 2639              		.loc 1 629 7
 2640 01d0 7868     		ldr	r0, [r7, #4]
 2641 01d2 9847     		blx	r3
 2642              	.LVL1:
 626:Drivers/STM32F1xx_HAL_Driver/Src/stm32f1xx_hal_dma.c ****     {
 2643              		.loc 1 626 7
 2644 01d4 30E1     		b	.L332
 2645              	.L283:
 630:Drivers/STM32F1xx_HAL_Driver/Src/stm32f1xx_hal_dma.c ****     }
 631:Drivers/STM32F1xx_HAL_Driver/Src/stm32f1xx_hal_dma.c ****   }
 632:Drivers/STM32F1xx_HAL_Driver/Src/stm32f1xx_hal_dma.c **** 
 633:Drivers/STM32F1xx_HAL_Driver/Src/stm32f1xx_hal_dma.c ****   /* Transfer Complete Interrupt management ***********************************/
 634:Drivers/STM32F1xx_HAL_Driver/Src/stm32f1xx_hal_dma.c ****   else if (((flag_it & (DMA_FLAG_TC1 << hdma->ChannelIndex)) != RESET) && ((source_it & DMA_IT_TC) 
 2646              		.loc 1 634 45
 2647 01d6 7B68     		ldr	r3, [r7, #4]
 2648 01d8 1B6C     		ldr	r3, [r3, #64]
 2649              		.loc 1 634 38
 2650 01da 0222     		movs	r2, #2
 2651 01dc 9A40     		lsls	r2, r2, r3
 2652              		.loc 1 634 22
 2653 01de FB68     		ldr	r3, [r7, #12]
 2654 01e0 1340     		ands	r3, r3, r2
 2655              		.loc 1 634 11
 2656 01e2 002B     		cmp	r3, #0
 2657 01e4 00F0F880 		beq	.L333
 2658              		.loc 1 634 87 discriminator 1
 2659 01e8 BB68     		ldr	r3, [r7, #8]
 2660 01ea 03F00203 		and	r3, r3, #2
 2661              		.loc 1 634 72 discriminator 1
 2662 01ee 002B     		cmp	r3, #0
 2663 01f0 00F0F280 		beq	.L333
 635:Drivers/STM32F1xx_HAL_Driver/Src/stm32f1xx_hal_dma.c ****   {
 636:Drivers/STM32F1xx_HAL_Driver/Src/stm32f1xx_hal_dma.c ****     if((hdma->Instance->CCR & DMA_CCR_CIRC) == 0U)
 2664              		.loc 1 636 13
 2665 01f4 7B68     		ldr	r3, [r7, #4]
 2666 01f6 1B68     		ldr	r3, [r3]
 2667              		.loc 1 636 23
 2668 01f8 1B68     		ldr	r3, [r3]
 2669              		.loc 1 636 29
 2670 01fa 03F02003 		and	r3, r3, #32
 2671              		.loc 1 636 7
 2672 01fe 002B     		cmp	r3, #0
 2673 0200 0BD1     		bne	.L334
ARM GAS  /tmp/ccVx4VbF.s 			page 59


 637:Drivers/STM32F1xx_HAL_Driver/Src/stm32f1xx_hal_dma.c ****     {
 638:Drivers/STM32F1xx_HAL_Driver/Src/stm32f1xx_hal_dma.c ****       /* Disable the transfer complete and error interrupt */
 639:Drivers/STM32F1xx_HAL_Driver/Src/stm32f1xx_hal_dma.c ****       __HAL_DMA_DISABLE_IT(hdma, DMA_IT_TE | DMA_IT_TC);  
 2674              		.loc 1 639 7
 2675 0202 7B68     		ldr	r3, [r7, #4]
 2676 0204 1B68     		ldr	r3, [r3]
 2677 0206 1A68     		ldr	r2, [r3]
 2678 0208 7B68     		ldr	r3, [r7, #4]
 2679 020a 1B68     		ldr	r3, [r3]
 2680 020c 22F00A02 		bic	r2, r2, #10
 2681 0210 1A60     		str	r2, [r3]
 640:Drivers/STM32F1xx_HAL_Driver/Src/stm32f1xx_hal_dma.c **** 
 641:Drivers/STM32F1xx_HAL_Driver/Src/stm32f1xx_hal_dma.c ****       /* Change the DMA state */
 642:Drivers/STM32F1xx_HAL_Driver/Src/stm32f1xx_hal_dma.c ****       hdma->State = HAL_DMA_STATE_READY;
 2682              		.loc 1 642 19
 2683 0212 7B68     		ldr	r3, [r7, #4]
 2684 0214 0122     		movs	r2, #1
 2685 0216 83F82120 		strb	r2, [r3, #33]
 2686              	.L334:
 643:Drivers/STM32F1xx_HAL_Driver/Src/stm32f1xx_hal_dma.c ****     }
 644:Drivers/STM32F1xx_HAL_Driver/Src/stm32f1xx_hal_dma.c ****     /* Clear the transfer complete flag */
 645:Drivers/STM32F1xx_HAL_Driver/Src/stm32f1xx_hal_dma.c ****       __HAL_DMA_CLEAR_FLAG(hdma, __HAL_DMA_GET_TC_FLAG_INDEX(hdma));
 2687              		.loc 1 645 7
 2688 021a 7B68     		ldr	r3, [r7, #4]
 2689 021c 1B68     		ldr	r3, [r3]
 2690 021e 1A46     		mov	r2, r3
 2691 0220 294B     		ldr	r3, .L384
 2692 0222 9A42     		cmp	r2, r3
 2693 0224 73D9     		bls	.L335
 2694              		.loc 1 645 7 is_stmt 0 discriminator 1
 2695 0226 7B68     		ldr	r3, [r7, #4]
 2696 0228 1B68     		ldr	r3, [r3]
 2697 022a 284A     		ldr	r2, .L384+4
 2698 022c 9342     		cmp	r3, r2
 2699 022e 6AD0     		beq	.L336
 2700              		.loc 1 645 7 discriminator 3
 2701 0230 7B68     		ldr	r3, [r7, #4]
 2702 0232 1B68     		ldr	r3, [r3]
 2703 0234 264A     		ldr	r2, .L384+8
 2704 0236 9342     		cmp	r3, r2
 2705 0238 63D0     		beq	.L337
 2706              		.loc 1 645 7 discriminator 5
 2707 023a 7B68     		ldr	r3, [r7, #4]
 2708 023c 1B68     		ldr	r3, [r3]
 2709 023e 254A     		ldr	r2, .L384+12
 2710 0240 9342     		cmp	r3, r2
 2711 0242 5BD0     		beq	.L338
 2712              		.loc 1 645 7 discriminator 7
 2713 0244 7B68     		ldr	r3, [r7, #4]
 2714 0246 1B68     		ldr	r3, [r3]
 2715 0248 234A     		ldr	r2, .L384+16
 2716 024a 9342     		cmp	r3, r2
 2717 024c 38D0     		beq	.L339
 2718              		.loc 1 645 7 discriminator 9
 2719 024e 7B68     		ldr	r3, [r7, #4]
 2720 0250 1B68     		ldr	r3, [r3]
 2721 0252 224A     		ldr	r2, .L384+20
ARM GAS  /tmp/ccVx4VbF.s 			page 60


 2722 0254 9342     		cmp	r3, r2
 2723 0256 30D0     		beq	.L340
 2724              		.loc 1 645 7 discriminator 11
 2725 0258 7B68     		ldr	r3, [r7, #4]
 2726 025a 1B68     		ldr	r3, [r3]
 2727 025c 204A     		ldr	r2, .L384+24
 2728 025e 9342     		cmp	r3, r2
 2729 0260 28D0     		beq	.L341
 2730              		.loc 1 645 7 discriminator 13
 2731 0262 7B68     		ldr	r3, [r7, #4]
 2732 0264 1B68     		ldr	r3, [r3]
 2733 0266 184A     		ldr	r2, .L384
 2734 0268 9342     		cmp	r3, r2
 2735 026a 20D0     		beq	.L342
 2736              		.loc 1 645 7 discriminator 15
 2737 026c 7B68     		ldr	r3, [r7, #4]
 2738 026e 1B68     		ldr	r3, [r3]
 2739 0270 1C4A     		ldr	r2, .L384+28
 2740 0272 9342     		cmp	r3, r2
 2741 0274 19D0     		beq	.L343
 2742              		.loc 1 645 7 discriminator 17
 2743 0276 7B68     		ldr	r3, [r7, #4]
 2744 0278 1B68     		ldr	r3, [r3]
 2745 027a 1B4A     		ldr	r2, .L384+32
 2746 027c 9342     		cmp	r3, r2
 2747 027e 12D0     		beq	.L344
 2748              		.loc 1 645 7 discriminator 19
 2749 0280 7B68     		ldr	r3, [r7, #4]
 2750 0282 1B68     		ldr	r3, [r3]
 2751 0284 194A     		ldr	r2, .L384+36
 2752 0286 9342     		cmp	r3, r2
 2753 0288 0AD0     		beq	.L345
 2754              		.loc 1 645 7 discriminator 21
 2755 028a 7B68     		ldr	r3, [r7, #4]
 2756 028c 1B68     		ldr	r3, [r3]
 2757 028e 184A     		ldr	r2, .L384+40
 2758 0290 9342     		cmp	r3, r2
 2759 0292 02D1     		bne	.L346
 2760              		.loc 1 645 7 discriminator 23
 2761 0294 4FF40053 		mov	r3, #8192
 2762 0298 36E0     		b	.L357
 2763              	.L346:
 2764              		.loc 1 645 7 discriminator 24
 2765 029a 4FF40033 		mov	r3, #131072
 2766 029e 33E0     		b	.L357
 2767              	.L345:
 2768              		.loc 1 645 7 discriminator 22
 2769 02a0 4FF40073 		mov	r3, #512
 2770 02a4 30E0     		b	.L357
 2771              	.L344:
 2772              		.loc 1 645 7 discriminator 20
 2773 02a6 2023     		movs	r3, #32
 2774 02a8 2EE0     		b	.L357
 2775              	.L343:
 2776              		.loc 1 645 7 discriminator 18
 2777 02aa 0223     		movs	r3, #2
 2778 02ac 2CE0     		b	.L357
ARM GAS  /tmp/ccVx4VbF.s 			page 61


 2779              	.L342:
 2780              		.loc 1 645 7 discriminator 16
 2781 02ae 4FF00073 		mov	r3, #33554432
 2782 02b2 29E0     		b	.L357
 2783              	.L341:
 2784              		.loc 1 645 7 discriminator 14
 2785 02b4 4FF40013 		mov	r3, #2097152
 2786 02b8 26E0     		b	.L357
 2787              	.L340:
 2788              		.loc 1 645 7 discriminator 12
 2789 02ba 4FF40033 		mov	r3, #131072
 2790 02be 23E0     		b	.L357
 2791              	.L339:
 2792              		.loc 1 645 7 discriminator 10
 2793 02c0 4FF40053 		mov	r3, #8192
 2794 02c4 20E0     		b	.L357
 2795              	.L385:
 2796 02c6 00BF     		.align	2
 2797              	.L384:
 2798 02c8 80000240 		.word	1073873024
 2799 02cc 08000240 		.word	1073872904
 2800 02d0 1C000240 		.word	1073872924
 2801 02d4 30000240 		.word	1073872944
 2802 02d8 44000240 		.word	1073872964
 2803 02dc 58000240 		.word	1073872984
 2804 02e0 6C000240 		.word	1073873004
 2805 02e4 08040240 		.word	1073873928
 2806 02e8 1C040240 		.word	1073873948
 2807 02ec 30040240 		.word	1073873968
 2808 02f0 44040240 		.word	1073873988
 2809 02f4 00040240 		.word	1073873920
 2810 02f8 00000240 		.word	1073872896
 2811              	.L338:
 2812              		.loc 1 645 7 discriminator 8
 2813 02fc 4FF40073 		mov	r3, #512
 2814 0300 02E0     		b	.L357
 2815              	.L337:
 2816              		.loc 1 645 7 discriminator 6
 2817 0302 2023     		movs	r3, #32
 2818 0304 00E0     		b	.L357
 2819              	.L336:
 2820              		.loc 1 645 7 discriminator 4
 2821 0306 0223     		movs	r3, #2
 2822              	.L357:
 2823              		.loc 1 645 7 discriminator 46
 2824 0308 4E4A     		ldr	r2, .L386
 2825 030a 5360     		str	r3, [r2, #4]
 2826 030c 57E0     		b	.L358
 2827              	.L335:
 2828              		.loc 1 645 7 discriminator 2
 2829 030e 7B68     		ldr	r3, [r7, #4]
 2830 0310 1B68     		ldr	r3, [r3]
 2831 0312 4D4A     		ldr	r2, .L386+4
 2832 0314 9342     		cmp	r3, r2
 2833 0316 4FD0     		beq	.L359
 2834              		.loc 1 645 7 discriminator 47
 2835 0318 7B68     		ldr	r3, [r7, #4]
ARM GAS  /tmp/ccVx4VbF.s 			page 62


 2836 031a 1B68     		ldr	r3, [r3]
 2837 031c 4B4A     		ldr	r2, .L386+8
 2838 031e 9342     		cmp	r3, r2
 2839 0320 48D0     		beq	.L360
 2840              		.loc 1 645 7 discriminator 49
 2841 0322 7B68     		ldr	r3, [r7, #4]
 2842 0324 1B68     		ldr	r3, [r3]
 2843 0326 4A4A     		ldr	r2, .L386+12
 2844 0328 9342     		cmp	r3, r2
 2845 032a 40D0     		beq	.L361
 2846              		.loc 1 645 7 discriminator 51
 2847 032c 7B68     		ldr	r3, [r7, #4]
 2848 032e 1B68     		ldr	r3, [r3]
 2849 0330 484A     		ldr	r2, .L386+16
 2850 0332 9342     		cmp	r3, r2
 2851 0334 38D0     		beq	.L362
 2852              		.loc 1 645 7 discriminator 53
 2853 0336 7B68     		ldr	r3, [r7, #4]
 2854 0338 1B68     		ldr	r3, [r3]
 2855 033a 474A     		ldr	r2, .L386+20
 2856 033c 9342     		cmp	r3, r2
 2857 033e 30D0     		beq	.L363
 2858              		.loc 1 645 7 discriminator 55
 2859 0340 7B68     		ldr	r3, [r7, #4]
 2860 0342 1B68     		ldr	r3, [r3]
 2861 0344 454A     		ldr	r2, .L386+24
 2862 0346 9342     		cmp	r3, r2
 2863 0348 28D0     		beq	.L364
 2864              		.loc 1 645 7 discriminator 57
 2865 034a 7B68     		ldr	r3, [r7, #4]
 2866 034c 1B68     		ldr	r3, [r3]
 2867 034e 444A     		ldr	r2, .L386+28
 2868 0350 9342     		cmp	r3, r2
 2869 0352 20D0     		beq	.L365
 2870              		.loc 1 645 7 discriminator 59
 2871 0354 7B68     		ldr	r3, [r7, #4]
 2872 0356 1B68     		ldr	r3, [r3]
 2873 0358 424A     		ldr	r2, .L386+32
 2874 035a 9342     		cmp	r3, r2
 2875 035c 19D0     		beq	.L366
 2876              		.loc 1 645 7 discriminator 61
 2877 035e 7B68     		ldr	r3, [r7, #4]
 2878 0360 1B68     		ldr	r3, [r3]
 2879 0362 414A     		ldr	r2, .L386+36
 2880 0364 9342     		cmp	r3, r2
 2881 0366 12D0     		beq	.L367
 2882              		.loc 1 645 7 discriminator 63
 2883 0368 7B68     		ldr	r3, [r7, #4]
 2884 036a 1B68     		ldr	r3, [r3]
 2885 036c 3F4A     		ldr	r2, .L386+40
 2886 036e 9342     		cmp	r3, r2
 2887 0370 0AD0     		beq	.L368
 2888              		.loc 1 645 7 discriminator 65
 2889 0372 7B68     		ldr	r3, [r7, #4]
 2890 0374 1B68     		ldr	r3, [r3]
 2891 0376 3E4A     		ldr	r2, .L386+44
 2892 0378 9342     		cmp	r3, r2
ARM GAS  /tmp/ccVx4VbF.s 			page 63


 2893 037a 02D1     		bne	.L369
 2894              		.loc 1 645 7 discriminator 67
 2895 037c 4FF40053 		mov	r3, #8192
 2896 0380 1BE0     		b	.L380
 2897              	.L369:
 2898              		.loc 1 645 7 discriminator 68
 2899 0382 4FF40033 		mov	r3, #131072
 2900 0386 18E0     		b	.L380
 2901              	.L368:
 2902              		.loc 1 645 7 discriminator 66
 2903 0388 4FF40073 		mov	r3, #512
 2904 038c 15E0     		b	.L380
 2905              	.L367:
 2906              		.loc 1 645 7 discriminator 64
 2907 038e 2023     		movs	r3, #32
 2908 0390 13E0     		b	.L380
 2909              	.L366:
 2910              		.loc 1 645 7 discriminator 62
 2911 0392 0223     		movs	r3, #2
 2912 0394 11E0     		b	.L380
 2913              	.L365:
 2914              		.loc 1 645 7 discriminator 60
 2915 0396 4FF00073 		mov	r3, #33554432
 2916 039a 0EE0     		b	.L380
 2917              	.L364:
 2918              		.loc 1 645 7 discriminator 58
 2919 039c 4FF40013 		mov	r3, #2097152
 2920 03a0 0BE0     		b	.L380
 2921              	.L363:
 2922              		.loc 1 645 7 discriminator 56
 2923 03a2 4FF40033 		mov	r3, #131072
 2924 03a6 08E0     		b	.L380
 2925              	.L362:
 2926              		.loc 1 645 7 discriminator 54
 2927 03a8 4FF40053 		mov	r3, #8192
 2928 03ac 05E0     		b	.L380
 2929              	.L361:
 2930              		.loc 1 645 7 discriminator 52
 2931 03ae 4FF40073 		mov	r3, #512
 2932 03b2 02E0     		b	.L380
 2933              	.L360:
 2934              		.loc 1 645 7 discriminator 50
 2935 03b4 2023     		movs	r3, #32
 2936 03b6 00E0     		b	.L380
 2937              	.L359:
 2938              		.loc 1 645 7 discriminator 48
 2939 03b8 0223     		movs	r3, #2
 2940              	.L380:
 2941              		.loc 1 645 7 discriminator 90
 2942 03ba 2E4A     		ldr	r2, .L386+48
 2943 03bc 5360     		str	r3, [r2, #4]
 2944              	.L358:
 646:Drivers/STM32F1xx_HAL_Driver/Src/stm32f1xx_hal_dma.c **** 
 647:Drivers/STM32F1xx_HAL_Driver/Src/stm32f1xx_hal_dma.c ****     /* Process Unlocked */
 648:Drivers/STM32F1xx_HAL_Driver/Src/stm32f1xx_hal_dma.c ****     __HAL_UNLOCK(hdma);
 2945              		.loc 1 648 5 is_stmt 1
 2946 03be 7B68     		ldr	r3, [r7, #4]
ARM GAS  /tmp/ccVx4VbF.s 			page 64


 2947 03c0 0022     		movs	r2, #0
 2948 03c2 83F82020 		strb	r2, [r3, #32]
 649:Drivers/STM32F1xx_HAL_Driver/Src/stm32f1xx_hal_dma.c **** 
 650:Drivers/STM32F1xx_HAL_Driver/Src/stm32f1xx_hal_dma.c ****     if(hdma->XferCpltCallback != NULL)
 2949              		.loc 1 650 12
 2950 03c6 7B68     		ldr	r3, [r7, #4]
 2951 03c8 9B6A     		ldr	r3, [r3, #40]
 2952              		.loc 1 650 7
 2953 03ca 002B     		cmp	r3, #0
 2954 03cc 34D0     		beq	.L332
 651:Drivers/STM32F1xx_HAL_Driver/Src/stm32f1xx_hal_dma.c ****     {
 652:Drivers/STM32F1xx_HAL_Driver/Src/stm32f1xx_hal_dma.c ****       /* Transfer complete callback */
 653:Drivers/STM32F1xx_HAL_Driver/Src/stm32f1xx_hal_dma.c ****       hdma->XferCpltCallback(hdma);
 2955              		.loc 1 653 11
 2956 03ce 7B68     		ldr	r3, [r7, #4]
 2957 03d0 9B6A     		ldr	r3, [r3, #40]
 2958              		.loc 1 653 7
 2959 03d2 7868     		ldr	r0, [r7, #4]
 2960 03d4 9847     		blx	r3
 2961              	.LVL2:
 650:Drivers/STM32F1xx_HAL_Driver/Src/stm32f1xx_hal_dma.c ****     {
 2962              		.loc 1 650 7
 2963 03d6 2FE0     		b	.L332
 2964              	.L333:
 654:Drivers/STM32F1xx_HAL_Driver/Src/stm32f1xx_hal_dma.c ****     }
 655:Drivers/STM32F1xx_HAL_Driver/Src/stm32f1xx_hal_dma.c ****   }
 656:Drivers/STM32F1xx_HAL_Driver/Src/stm32f1xx_hal_dma.c **** 
 657:Drivers/STM32F1xx_HAL_Driver/Src/stm32f1xx_hal_dma.c ****   /* Transfer Error Interrupt management **************************************/
 658:Drivers/STM32F1xx_HAL_Driver/Src/stm32f1xx_hal_dma.c ****   else if (( RESET != (flag_it & (DMA_FLAG_TE1 << hdma->ChannelIndex))) && (RESET != (source_it & D
 2965              		.loc 1 658 55
 2966 03d8 7B68     		ldr	r3, [r7, #4]
 2967 03da 1B6C     		ldr	r3, [r3, #64]
 2968              		.loc 1 658 48
 2969 03dc 0822     		movs	r2, #8
 2970 03de 9A40     		lsls	r2, r2, r3
 2971              		.loc 1 658 32
 2972 03e0 FB68     		ldr	r3, [r7, #12]
 2973 03e2 1340     		ands	r3, r3, r2
 2974              		.loc 1 658 11
 2975 03e4 002B     		cmp	r3, #0
 2976 03e6 28D0     		beq	.L383
 2977              		.loc 1 658 97 discriminator 1
 2978 03e8 BB68     		ldr	r3, [r7, #8]
 2979 03ea 03F00803 		and	r3, r3, #8
 2980              		.loc 1 658 73 discriminator 1
 2981 03ee 002B     		cmp	r3, #0
 2982 03f0 23D0     		beq	.L383
 659:Drivers/STM32F1xx_HAL_Driver/Src/stm32f1xx_hal_dma.c ****   {
 660:Drivers/STM32F1xx_HAL_Driver/Src/stm32f1xx_hal_dma.c ****     /* When a DMA transfer error occurs */
 661:Drivers/STM32F1xx_HAL_Driver/Src/stm32f1xx_hal_dma.c ****     /* A hardware clear of its EN bits is performed */
 662:Drivers/STM32F1xx_HAL_Driver/Src/stm32f1xx_hal_dma.c ****     /* Disable ALL DMA IT */
 663:Drivers/STM32F1xx_HAL_Driver/Src/stm32f1xx_hal_dma.c ****     __HAL_DMA_DISABLE_IT(hdma, (DMA_IT_TC | DMA_IT_HT | DMA_IT_TE));
 2983              		.loc 1 663 5
 2984 03f2 7B68     		ldr	r3, [r7, #4]
 2985 03f4 1B68     		ldr	r3, [r3]
 2986 03f6 1A68     		ldr	r2, [r3]
 2987 03f8 7B68     		ldr	r3, [r7, #4]
ARM GAS  /tmp/ccVx4VbF.s 			page 65


 2988 03fa 1B68     		ldr	r3, [r3]
 2989 03fc 22F00E02 		bic	r2, r2, #14
 2990 0400 1A60     		str	r2, [r3]
 664:Drivers/STM32F1xx_HAL_Driver/Src/stm32f1xx_hal_dma.c **** 
 665:Drivers/STM32F1xx_HAL_Driver/Src/stm32f1xx_hal_dma.c ****     /* Clear all flags */
 666:Drivers/STM32F1xx_HAL_Driver/Src/stm32f1xx_hal_dma.c ****     hdma->DmaBaseAddress->IFCR = (DMA_ISR_GIF1 << hdma->ChannelIndex);
 2991              		.loc 1 666 55
 2992 0402 7B68     		ldr	r3, [r7, #4]
 2993 0404 1A6C     		ldr	r2, [r3, #64]
 2994              		.loc 1 666 9
 2995 0406 7B68     		ldr	r3, [r7, #4]
 2996 0408 DB6B     		ldr	r3, [r3, #60]
 2997              		.loc 1 666 48
 2998 040a 0121     		movs	r1, #1
 2999 040c 01FA02F2 		lsl	r2, r1, r2
 3000              		.loc 1 666 32
 3001 0410 5A60     		str	r2, [r3, #4]
 667:Drivers/STM32F1xx_HAL_Driver/Src/stm32f1xx_hal_dma.c **** 
 668:Drivers/STM32F1xx_HAL_Driver/Src/stm32f1xx_hal_dma.c ****     /* Update error code */
 669:Drivers/STM32F1xx_HAL_Driver/Src/stm32f1xx_hal_dma.c ****     hdma->ErrorCode = HAL_DMA_ERROR_TE;
 3002              		.loc 1 669 21
 3003 0412 7B68     		ldr	r3, [r7, #4]
 3004 0414 0122     		movs	r2, #1
 3005 0416 9A63     		str	r2, [r3, #56]
 670:Drivers/STM32F1xx_HAL_Driver/Src/stm32f1xx_hal_dma.c **** 
 671:Drivers/STM32F1xx_HAL_Driver/Src/stm32f1xx_hal_dma.c ****     /* Change the DMA state */
 672:Drivers/STM32F1xx_HAL_Driver/Src/stm32f1xx_hal_dma.c ****     hdma->State = HAL_DMA_STATE_READY;
 3006              		.loc 1 672 17
 3007 0418 7B68     		ldr	r3, [r7, #4]
 3008 041a 0122     		movs	r2, #1
 3009 041c 83F82120 		strb	r2, [r3, #33]
 673:Drivers/STM32F1xx_HAL_Driver/Src/stm32f1xx_hal_dma.c **** 
 674:Drivers/STM32F1xx_HAL_Driver/Src/stm32f1xx_hal_dma.c ****     /* Process Unlocked */
 675:Drivers/STM32F1xx_HAL_Driver/Src/stm32f1xx_hal_dma.c ****     __HAL_UNLOCK(hdma);
 3010              		.loc 1 675 5
 3011 0420 7B68     		ldr	r3, [r7, #4]
 3012 0422 0022     		movs	r2, #0
 3013 0424 83F82020 		strb	r2, [r3, #32]
 676:Drivers/STM32F1xx_HAL_Driver/Src/stm32f1xx_hal_dma.c **** 
 677:Drivers/STM32F1xx_HAL_Driver/Src/stm32f1xx_hal_dma.c ****     if (hdma->XferErrorCallback != NULL)
 3014              		.loc 1 677 13
 3015 0428 7B68     		ldr	r3, [r7, #4]
 3016 042a 1B6B     		ldr	r3, [r3, #48]
 3017              		.loc 1 677 8
 3018 042c 002B     		cmp	r3, #0
 3019 042e 04D0     		beq	.L383
 678:Drivers/STM32F1xx_HAL_Driver/Src/stm32f1xx_hal_dma.c ****     {
 679:Drivers/STM32F1xx_HAL_Driver/Src/stm32f1xx_hal_dma.c ****       /* Transfer error callback */
 680:Drivers/STM32F1xx_HAL_Driver/Src/stm32f1xx_hal_dma.c ****       hdma->XferErrorCallback(hdma);
 3020              		.loc 1 680 11
 3021 0430 7B68     		ldr	r3, [r7, #4]
 3022 0432 1B6B     		ldr	r3, [r3, #48]
 3023              		.loc 1 680 7
 3024 0434 7868     		ldr	r0, [r7, #4]
 3025 0436 9847     		blx	r3
 3026              	.LVL3:
 3027              	.L332:
ARM GAS  /tmp/ccVx4VbF.s 			page 66


 681:Drivers/STM32F1xx_HAL_Driver/Src/stm32f1xx_hal_dma.c ****     }
 682:Drivers/STM32F1xx_HAL_Driver/Src/stm32f1xx_hal_dma.c ****   }
 683:Drivers/STM32F1xx_HAL_Driver/Src/stm32f1xx_hal_dma.c ****   return;
 3028              		.loc 1 683 3 discriminator 1
 3029 0438 00BF     		nop
 3030              	.L383:
 3031              		.loc 1 683 3 is_stmt 0
 3032 043a 00BF     		nop
 684:Drivers/STM32F1xx_HAL_Driver/Src/stm32f1xx_hal_dma.c **** }
 3033              		.loc 1 684 1 is_stmt 1
 3034 043c 1037     		adds	r7, r7, #16
 3035              	.LCFI41:
 3036              		.cfi_def_cfa_offset 8
 3037 043e BD46     		mov	sp, r7
 3038              	.LCFI42:
 3039              		.cfi_def_cfa_register 13
 3040              		@ sp needed
 3041 0440 80BD     		pop	{r7, pc}
 3042              	.L387:
 3043 0442 00BF     		.align	2
 3044              	.L386:
 3045 0444 00040240 		.word	1073873920
 3046 0448 08000240 		.word	1073872904
 3047 044c 1C000240 		.word	1073872924
 3048 0450 30000240 		.word	1073872944
 3049 0454 44000240 		.word	1073872964
 3050 0458 58000240 		.word	1073872984
 3051 045c 6C000240 		.word	1073873004
 3052 0460 80000240 		.word	1073873024
 3053 0464 08040240 		.word	1073873928
 3054 0468 1C040240 		.word	1073873948
 3055 046c 30040240 		.word	1073873968
 3056 0470 44040240 		.word	1073873988
 3057 0474 00000240 		.word	1073872896
 3058              		.cfi_endproc
 3059              	.LFE73:
 3061              		.section	.text.HAL_DMA_RegisterCallback,"ax",%progbits
 3062              		.align	1
 3063              		.global	HAL_DMA_RegisterCallback
 3064              		.syntax unified
 3065              		.thumb
 3066              		.thumb_func
 3067              		.fpu softvfp
 3069              	HAL_DMA_RegisterCallback:
 3070              	.LFB74:
 685:Drivers/STM32F1xx_HAL_Driver/Src/stm32f1xx_hal_dma.c **** 
 686:Drivers/STM32F1xx_HAL_Driver/Src/stm32f1xx_hal_dma.c **** /**
 687:Drivers/STM32F1xx_HAL_Driver/Src/stm32f1xx_hal_dma.c ****   * @brief Register callbacks
 688:Drivers/STM32F1xx_HAL_Driver/Src/stm32f1xx_hal_dma.c ****   * @param hdma: pointer to a DMA_HandleTypeDef structure that contains
 689:Drivers/STM32F1xx_HAL_Driver/Src/stm32f1xx_hal_dma.c ****   *              the configuration information for the specified DMA Channel.
 690:Drivers/STM32F1xx_HAL_Driver/Src/stm32f1xx_hal_dma.c ****   * @param CallbackID: User Callback identifer
 691:Drivers/STM32F1xx_HAL_Driver/Src/stm32f1xx_hal_dma.c ****   *                    a HAL_DMA_CallbackIDTypeDef ENUM as parameter.
 692:Drivers/STM32F1xx_HAL_Driver/Src/stm32f1xx_hal_dma.c ****   * @param pCallback: pointer to private callbacsk function which has pointer to 
 693:Drivers/STM32F1xx_HAL_Driver/Src/stm32f1xx_hal_dma.c ****   *                   a DMA_HandleTypeDef structure as parameter.
 694:Drivers/STM32F1xx_HAL_Driver/Src/stm32f1xx_hal_dma.c ****   * @retval HAL status
 695:Drivers/STM32F1xx_HAL_Driver/Src/stm32f1xx_hal_dma.c ****   */                          
 696:Drivers/STM32F1xx_HAL_Driver/Src/stm32f1xx_hal_dma.c **** HAL_StatusTypeDef HAL_DMA_RegisterCallback(DMA_HandleTypeDef *hdma, HAL_DMA_CallbackIDTypeDef Callb
ARM GAS  /tmp/ccVx4VbF.s 			page 67


 697:Drivers/STM32F1xx_HAL_Driver/Src/stm32f1xx_hal_dma.c **** {
 3071              		.loc 1 697 1
 3072              		.cfi_startproc
 3073              		@ args = 0, pretend = 0, frame = 24
 3074              		@ frame_needed = 1, uses_anonymous_args = 0
 3075              		@ link register save eliminated.
 3076 0000 80B4     		push	{r7}
 3077              	.LCFI43:
 3078              		.cfi_def_cfa_offset 4
 3079              		.cfi_offset 7, -4
 3080 0002 87B0     		sub	sp, sp, #28
 3081              	.LCFI44:
 3082              		.cfi_def_cfa_offset 32
 3083 0004 00AF     		add	r7, sp, #0
 3084              	.LCFI45:
 3085              		.cfi_def_cfa_register 7
 3086 0006 F860     		str	r0, [r7, #12]
 3087 0008 0B46     		mov	r3, r1
 3088 000a 7A60     		str	r2, [r7, #4]
 3089 000c FB72     		strb	r3, [r7, #11]
 698:Drivers/STM32F1xx_HAL_Driver/Src/stm32f1xx_hal_dma.c ****   HAL_StatusTypeDef status = HAL_OK;
 3090              		.loc 1 698 21
 3091 000e 0023     		movs	r3, #0
 3092 0010 FB75     		strb	r3, [r7, #23]
 699:Drivers/STM32F1xx_HAL_Driver/Src/stm32f1xx_hal_dma.c ****   
 700:Drivers/STM32F1xx_HAL_Driver/Src/stm32f1xx_hal_dma.c ****   /* Process locked */
 701:Drivers/STM32F1xx_HAL_Driver/Src/stm32f1xx_hal_dma.c ****   __HAL_LOCK(hdma);
 3093              		.loc 1 701 3
 3094 0012 FB68     		ldr	r3, [r7, #12]
 3095 0014 93F82030 		ldrb	r3, [r3, #32]	@ zero_extendqisi2
 3096 0018 012B     		cmp	r3, #1
 3097 001a 01D1     		bne	.L389
 3098              		.loc 1 701 3 is_stmt 0 discriminator 1
 3099 001c 0223     		movs	r3, #2
 3100 001e 32E0     		b	.L390
 3101              	.L389:
 3102              		.loc 1 701 3 discriminator 2
 3103 0020 FB68     		ldr	r3, [r7, #12]
 3104 0022 0122     		movs	r2, #1
 3105 0024 83F82020 		strb	r2, [r3, #32]
 702:Drivers/STM32F1xx_HAL_Driver/Src/stm32f1xx_hal_dma.c ****   
 703:Drivers/STM32F1xx_HAL_Driver/Src/stm32f1xx_hal_dma.c ****   if(HAL_DMA_STATE_READY == hdma->State)
 3106              		.loc 1 703 33 is_stmt 1 discriminator 2
 3107 0028 FB68     		ldr	r3, [r7, #12]
 3108 002a 93F82130 		ldrb	r3, [r3, #33]	@ zero_extendqisi2
 3109              		.loc 1 703 5 discriminator 2
 3110 002e 012B     		cmp	r3, #1
 3111 0030 22D1     		bne	.L391
 704:Drivers/STM32F1xx_HAL_Driver/Src/stm32f1xx_hal_dma.c ****   {
 705:Drivers/STM32F1xx_HAL_Driver/Src/stm32f1xx_hal_dma.c ****     switch (CallbackID)
 3112              		.loc 1 705 5
 3113 0032 FB7A     		ldrb	r3, [r7, #11]	@ zero_extendqisi2
 3114 0034 032B     		cmp	r3, #3
 3115 0036 1BD8     		bhi	.L392
 3116 0038 01A2     		adr	r2, .L394
 3117 003a 52F823F0 		ldr	pc, [r2, r3, lsl #2]
 3118 003e 00BF     		.p2align 2
ARM GAS  /tmp/ccVx4VbF.s 			page 68


 3119              	.L394:
 3120 0040 51000000 		.word	.L397+1
 3121 0044 59000000 		.word	.L396+1
 3122 0048 61000000 		.word	.L395+1
 3123 004c 69000000 		.word	.L393+1
 3124              		.p2align 1
 3125              	.L397:
 706:Drivers/STM32F1xx_HAL_Driver/Src/stm32f1xx_hal_dma.c ****     {
 707:Drivers/STM32F1xx_HAL_Driver/Src/stm32f1xx_hal_dma.c ****     case  HAL_DMA_XFER_CPLT_CB_ID:
 708:Drivers/STM32F1xx_HAL_Driver/Src/stm32f1xx_hal_dma.c ****       hdma->XferCpltCallback = pCallback;
 3126              		.loc 1 708 30
 3127 0050 FB68     		ldr	r3, [r7, #12]
 3128 0052 7A68     		ldr	r2, [r7, #4]
 3129 0054 9A62     		str	r2, [r3, #40]
 709:Drivers/STM32F1xx_HAL_Driver/Src/stm32f1xx_hal_dma.c ****       break;
 3130              		.loc 1 709 7
 3131 0056 11E0     		b	.L399
 3132              	.L396:
 710:Drivers/STM32F1xx_HAL_Driver/Src/stm32f1xx_hal_dma.c ****       
 711:Drivers/STM32F1xx_HAL_Driver/Src/stm32f1xx_hal_dma.c ****     case  HAL_DMA_XFER_HALFCPLT_CB_ID:
 712:Drivers/STM32F1xx_HAL_Driver/Src/stm32f1xx_hal_dma.c ****       hdma->XferHalfCpltCallback = pCallback;
 3133              		.loc 1 712 34
 3134 0058 FB68     		ldr	r3, [r7, #12]
 3135 005a 7A68     		ldr	r2, [r7, #4]
 3136 005c DA62     		str	r2, [r3, #44]
 713:Drivers/STM32F1xx_HAL_Driver/Src/stm32f1xx_hal_dma.c ****       break;         
 3137              		.loc 1 713 7
 3138 005e 0DE0     		b	.L399
 3139              	.L395:
 714:Drivers/STM32F1xx_HAL_Driver/Src/stm32f1xx_hal_dma.c **** 
 715:Drivers/STM32F1xx_HAL_Driver/Src/stm32f1xx_hal_dma.c ****     case  HAL_DMA_XFER_ERROR_CB_ID:
 716:Drivers/STM32F1xx_HAL_Driver/Src/stm32f1xx_hal_dma.c ****       hdma->XferErrorCallback = pCallback;
 3140              		.loc 1 716 31
 3141 0060 FB68     		ldr	r3, [r7, #12]
 3142 0062 7A68     		ldr	r2, [r7, #4]
 3143 0064 1A63     		str	r2, [r3, #48]
 717:Drivers/STM32F1xx_HAL_Driver/Src/stm32f1xx_hal_dma.c ****       break;         
 3144              		.loc 1 717 7
 3145 0066 09E0     		b	.L399
 3146              	.L393:
 718:Drivers/STM32F1xx_HAL_Driver/Src/stm32f1xx_hal_dma.c ****       
 719:Drivers/STM32F1xx_HAL_Driver/Src/stm32f1xx_hal_dma.c ****     case  HAL_DMA_XFER_ABORT_CB_ID:
 720:Drivers/STM32F1xx_HAL_Driver/Src/stm32f1xx_hal_dma.c ****       hdma->XferAbortCallback = pCallback;
 3147              		.loc 1 720 31
 3148 0068 FB68     		ldr	r3, [r7, #12]
 3149 006a 7A68     		ldr	r2, [r7, #4]
 3150 006c 5A63     		str	r2, [r3, #52]
 721:Drivers/STM32F1xx_HAL_Driver/Src/stm32f1xx_hal_dma.c ****       break; 
 3151              		.loc 1 721 7
 3152 006e 05E0     		b	.L399
 3153              	.L392:
 722:Drivers/STM32F1xx_HAL_Driver/Src/stm32f1xx_hal_dma.c ****       
 723:Drivers/STM32F1xx_HAL_Driver/Src/stm32f1xx_hal_dma.c ****     default:
 724:Drivers/STM32F1xx_HAL_Driver/Src/stm32f1xx_hal_dma.c ****       status = HAL_ERROR;
 3154              		.loc 1 724 14
 3155 0070 0123     		movs	r3, #1
 3156 0072 FB75     		strb	r3, [r7, #23]
ARM GAS  /tmp/ccVx4VbF.s 			page 69


 725:Drivers/STM32F1xx_HAL_Driver/Src/stm32f1xx_hal_dma.c ****       break;                                                            
 3157              		.loc 1 725 7
 3158 0074 00BF     		nop
 3159 0076 01E0     		b	.L399
 3160              	.L391:
 726:Drivers/STM32F1xx_HAL_Driver/Src/stm32f1xx_hal_dma.c ****     }
 727:Drivers/STM32F1xx_HAL_Driver/Src/stm32f1xx_hal_dma.c ****   }
 728:Drivers/STM32F1xx_HAL_Driver/Src/stm32f1xx_hal_dma.c ****   else
 729:Drivers/STM32F1xx_HAL_Driver/Src/stm32f1xx_hal_dma.c ****   {
 730:Drivers/STM32F1xx_HAL_Driver/Src/stm32f1xx_hal_dma.c ****     status = HAL_ERROR;
 3161              		.loc 1 730 12
 3162 0078 0123     		movs	r3, #1
 3163 007a FB75     		strb	r3, [r7, #23]
 3164              	.L399:
 731:Drivers/STM32F1xx_HAL_Driver/Src/stm32f1xx_hal_dma.c ****   } 
 732:Drivers/STM32F1xx_HAL_Driver/Src/stm32f1xx_hal_dma.c ****   
 733:Drivers/STM32F1xx_HAL_Driver/Src/stm32f1xx_hal_dma.c ****   /* Release Lock */
 734:Drivers/STM32F1xx_HAL_Driver/Src/stm32f1xx_hal_dma.c ****   __HAL_UNLOCK(hdma);
 3165              		.loc 1 734 3
 3166 007c FB68     		ldr	r3, [r7, #12]
 3167 007e 0022     		movs	r2, #0
 3168 0080 83F82020 		strb	r2, [r3, #32]
 735:Drivers/STM32F1xx_HAL_Driver/Src/stm32f1xx_hal_dma.c ****   
 736:Drivers/STM32F1xx_HAL_Driver/Src/stm32f1xx_hal_dma.c ****   return status;
 3169              		.loc 1 736 10
 3170 0084 FB7D     		ldrb	r3, [r7, #23]	@ zero_extendqisi2
 3171              	.L390:
 737:Drivers/STM32F1xx_HAL_Driver/Src/stm32f1xx_hal_dma.c **** }
 3172              		.loc 1 737 1
 3173 0086 1846     		mov	r0, r3
 3174 0088 1C37     		adds	r7, r7, #28
 3175              	.LCFI46:
 3176              		.cfi_def_cfa_offset 4
 3177 008a BD46     		mov	sp, r7
 3178              	.LCFI47:
 3179              		.cfi_def_cfa_register 13
 3180              		@ sp needed
 3181 008c 80BC     		pop	{r7}
 3182              	.LCFI48:
 3183              		.cfi_restore 7
 3184              		.cfi_def_cfa_offset 0
 3185 008e 7047     		bx	lr
 3186              		.cfi_endproc
 3187              	.LFE74:
 3189              		.section	.text.HAL_DMA_UnRegisterCallback,"ax",%progbits
 3190              		.align	1
 3191              		.global	HAL_DMA_UnRegisterCallback
 3192              		.syntax unified
 3193              		.thumb
 3194              		.thumb_func
 3195              		.fpu softvfp
 3197              	HAL_DMA_UnRegisterCallback:
 3198              	.LFB75:
 738:Drivers/STM32F1xx_HAL_Driver/Src/stm32f1xx_hal_dma.c **** 
 739:Drivers/STM32F1xx_HAL_Driver/Src/stm32f1xx_hal_dma.c **** /**
 740:Drivers/STM32F1xx_HAL_Driver/Src/stm32f1xx_hal_dma.c ****   * @brief UnRegister callbacks
 741:Drivers/STM32F1xx_HAL_Driver/Src/stm32f1xx_hal_dma.c ****   * @param hdma: pointer to a DMA_HandleTypeDef structure that contains
ARM GAS  /tmp/ccVx4VbF.s 			page 70


 742:Drivers/STM32F1xx_HAL_Driver/Src/stm32f1xx_hal_dma.c ****   *              the configuration information for the specified DMA Channel.
 743:Drivers/STM32F1xx_HAL_Driver/Src/stm32f1xx_hal_dma.c ****   * @param CallbackID: User Callback identifer
 744:Drivers/STM32F1xx_HAL_Driver/Src/stm32f1xx_hal_dma.c ****   *                    a HAL_DMA_CallbackIDTypeDef ENUM as parameter.
 745:Drivers/STM32F1xx_HAL_Driver/Src/stm32f1xx_hal_dma.c ****   * @retval HAL status
 746:Drivers/STM32F1xx_HAL_Driver/Src/stm32f1xx_hal_dma.c ****   */              
 747:Drivers/STM32F1xx_HAL_Driver/Src/stm32f1xx_hal_dma.c **** HAL_StatusTypeDef HAL_DMA_UnRegisterCallback(DMA_HandleTypeDef *hdma, HAL_DMA_CallbackIDTypeDef Cal
 748:Drivers/STM32F1xx_HAL_Driver/Src/stm32f1xx_hal_dma.c **** {
 3199              		.loc 1 748 1
 3200              		.cfi_startproc
 3201              		@ args = 0, pretend = 0, frame = 16
 3202              		@ frame_needed = 1, uses_anonymous_args = 0
 3203              		@ link register save eliminated.
 3204 0000 80B4     		push	{r7}
 3205              	.LCFI49:
 3206              		.cfi_def_cfa_offset 4
 3207              		.cfi_offset 7, -4
 3208 0002 85B0     		sub	sp, sp, #20
 3209              	.LCFI50:
 3210              		.cfi_def_cfa_offset 24
 3211 0004 00AF     		add	r7, sp, #0
 3212              	.LCFI51:
 3213              		.cfi_def_cfa_register 7
 3214 0006 7860     		str	r0, [r7, #4]
 3215 0008 0B46     		mov	r3, r1
 3216 000a FB70     		strb	r3, [r7, #3]
 749:Drivers/STM32F1xx_HAL_Driver/Src/stm32f1xx_hal_dma.c ****   HAL_StatusTypeDef status = HAL_OK;
 3217              		.loc 1 749 21
 3218 000c 0023     		movs	r3, #0
 3219 000e FB73     		strb	r3, [r7, #15]
 750:Drivers/STM32F1xx_HAL_Driver/Src/stm32f1xx_hal_dma.c **** 
 751:Drivers/STM32F1xx_HAL_Driver/Src/stm32f1xx_hal_dma.c ****   /* Process locked */
 752:Drivers/STM32F1xx_HAL_Driver/Src/stm32f1xx_hal_dma.c ****   __HAL_LOCK(hdma);
 3220              		.loc 1 752 3
 3221 0010 7B68     		ldr	r3, [r7, #4]
 3222 0012 93F82030 		ldrb	r3, [r3, #32]	@ zero_extendqisi2
 3223 0016 012B     		cmp	r3, #1
 3224 0018 01D1     		bne	.L401
 3225              		.loc 1 752 3 is_stmt 0 discriminator 1
 3226 001a 0223     		movs	r3, #2
 3227 001c 40E0     		b	.L402
 3228              	.L401:
 3229              		.loc 1 752 3 discriminator 2
 3230 001e 7B68     		ldr	r3, [r7, #4]
 3231 0020 0122     		movs	r2, #1
 3232 0022 83F82020 		strb	r2, [r3, #32]
 753:Drivers/STM32F1xx_HAL_Driver/Src/stm32f1xx_hal_dma.c ****   
 754:Drivers/STM32F1xx_HAL_Driver/Src/stm32f1xx_hal_dma.c ****   if(HAL_DMA_STATE_READY == hdma->State)
 3233              		.loc 1 754 33 is_stmt 1 discriminator 2
 3234 0026 7B68     		ldr	r3, [r7, #4]
 3235 0028 93F82130 		ldrb	r3, [r3, #33]	@ zero_extendqisi2
 3236              		.loc 1 754 5 discriminator 2
 3237 002c 012B     		cmp	r3, #1
 3238 002e 30D1     		bne	.L403
 755:Drivers/STM32F1xx_HAL_Driver/Src/stm32f1xx_hal_dma.c ****   {
 756:Drivers/STM32F1xx_HAL_Driver/Src/stm32f1xx_hal_dma.c ****     switch (CallbackID)
 3239              		.loc 1 756 5
 3240 0030 FB78     		ldrb	r3, [r7, #3]	@ zero_extendqisi2
ARM GAS  /tmp/ccVx4VbF.s 			page 71


 3241 0032 042B     		cmp	r3, #4
 3242 0034 29D8     		bhi	.L404
 3243 0036 01A2     		adr	r2, .L406
 3244 0038 52F823F0 		ldr	pc, [r2, r3, lsl #2]
 3245              		.p2align 2
 3246              	.L406:
 3247 003c 51000000 		.word	.L410+1
 3248 0040 59000000 		.word	.L409+1
 3249 0044 61000000 		.word	.L408+1
 3250 0048 69000000 		.word	.L407+1
 3251 004c 71000000 		.word	.L405+1
 3252              		.p2align 1
 3253              	.L410:
 757:Drivers/STM32F1xx_HAL_Driver/Src/stm32f1xx_hal_dma.c ****     {
 758:Drivers/STM32F1xx_HAL_Driver/Src/stm32f1xx_hal_dma.c ****     case  HAL_DMA_XFER_CPLT_CB_ID:
 759:Drivers/STM32F1xx_HAL_Driver/Src/stm32f1xx_hal_dma.c ****       hdma->XferCpltCallback = NULL;
 3254              		.loc 1 759 30
 3255 0050 7B68     		ldr	r3, [r7, #4]
 3256 0052 0022     		movs	r2, #0
 3257 0054 9A62     		str	r2, [r3, #40]
 760:Drivers/STM32F1xx_HAL_Driver/Src/stm32f1xx_hal_dma.c ****       break;
 3258              		.loc 1 760 7
 3259 0056 1EE0     		b	.L412
 3260              	.L409:
 761:Drivers/STM32F1xx_HAL_Driver/Src/stm32f1xx_hal_dma.c **** 
 762:Drivers/STM32F1xx_HAL_Driver/Src/stm32f1xx_hal_dma.c ****     case  HAL_DMA_XFER_HALFCPLT_CB_ID:
 763:Drivers/STM32F1xx_HAL_Driver/Src/stm32f1xx_hal_dma.c ****       hdma->XferHalfCpltCallback = NULL;
 3261              		.loc 1 763 34
 3262 0058 7B68     		ldr	r3, [r7, #4]
 3263 005a 0022     		movs	r2, #0
 3264 005c DA62     		str	r2, [r3, #44]
 764:Drivers/STM32F1xx_HAL_Driver/Src/stm32f1xx_hal_dma.c ****       break;         
 3265              		.loc 1 764 7
 3266 005e 1AE0     		b	.L412
 3267              	.L408:
 765:Drivers/STM32F1xx_HAL_Driver/Src/stm32f1xx_hal_dma.c **** 
 766:Drivers/STM32F1xx_HAL_Driver/Src/stm32f1xx_hal_dma.c ****     case  HAL_DMA_XFER_ERROR_CB_ID:
 767:Drivers/STM32F1xx_HAL_Driver/Src/stm32f1xx_hal_dma.c ****       hdma->XferErrorCallback = NULL;
 3268              		.loc 1 767 31
 3269 0060 7B68     		ldr	r3, [r7, #4]
 3270 0062 0022     		movs	r2, #0
 3271 0064 1A63     		str	r2, [r3, #48]
 768:Drivers/STM32F1xx_HAL_Driver/Src/stm32f1xx_hal_dma.c ****       break;         
 3272              		.loc 1 768 7
 3273 0066 16E0     		b	.L412
 3274              	.L407:
 769:Drivers/STM32F1xx_HAL_Driver/Src/stm32f1xx_hal_dma.c **** 
 770:Drivers/STM32F1xx_HAL_Driver/Src/stm32f1xx_hal_dma.c ****     case  HAL_DMA_XFER_ABORT_CB_ID:
 771:Drivers/STM32F1xx_HAL_Driver/Src/stm32f1xx_hal_dma.c ****       hdma->XferAbortCallback = NULL;
 3275              		.loc 1 771 31
 3276 0068 7B68     		ldr	r3, [r7, #4]
 3277 006a 0022     		movs	r2, #0
 3278 006c 5A63     		str	r2, [r3, #52]
 772:Drivers/STM32F1xx_HAL_Driver/Src/stm32f1xx_hal_dma.c ****       break; 
 3279              		.loc 1 772 7
 3280 006e 12E0     		b	.L412
 3281              	.L405:
ARM GAS  /tmp/ccVx4VbF.s 			page 72


 773:Drivers/STM32F1xx_HAL_Driver/Src/stm32f1xx_hal_dma.c **** 
 774:Drivers/STM32F1xx_HAL_Driver/Src/stm32f1xx_hal_dma.c ****     case   HAL_DMA_XFER_ALL_CB_ID:
 775:Drivers/STM32F1xx_HAL_Driver/Src/stm32f1xx_hal_dma.c ****       hdma->XferCpltCallback = NULL;
 3282              		.loc 1 775 30
 3283 0070 7B68     		ldr	r3, [r7, #4]
 3284 0072 0022     		movs	r2, #0
 3285 0074 9A62     		str	r2, [r3, #40]
 776:Drivers/STM32F1xx_HAL_Driver/Src/stm32f1xx_hal_dma.c ****       hdma->XferHalfCpltCallback = NULL;
 3286              		.loc 1 776 34
 3287 0076 7B68     		ldr	r3, [r7, #4]
 3288 0078 0022     		movs	r2, #0
 3289 007a DA62     		str	r2, [r3, #44]
 777:Drivers/STM32F1xx_HAL_Driver/Src/stm32f1xx_hal_dma.c ****       hdma->XferErrorCallback = NULL;
 3290              		.loc 1 777 31
 3291 007c 7B68     		ldr	r3, [r7, #4]
 3292 007e 0022     		movs	r2, #0
 3293 0080 1A63     		str	r2, [r3, #48]
 778:Drivers/STM32F1xx_HAL_Driver/Src/stm32f1xx_hal_dma.c ****       hdma->XferAbortCallback = NULL;
 3294              		.loc 1 778 31
 3295 0082 7B68     		ldr	r3, [r7, #4]
 3296 0084 0022     		movs	r2, #0
 3297 0086 5A63     		str	r2, [r3, #52]
 779:Drivers/STM32F1xx_HAL_Driver/Src/stm32f1xx_hal_dma.c ****       break; 
 3298              		.loc 1 779 7
 3299 0088 05E0     		b	.L412
 3300              	.L404:
 780:Drivers/STM32F1xx_HAL_Driver/Src/stm32f1xx_hal_dma.c **** 
 781:Drivers/STM32F1xx_HAL_Driver/Src/stm32f1xx_hal_dma.c ****     default:
 782:Drivers/STM32F1xx_HAL_Driver/Src/stm32f1xx_hal_dma.c ****       status = HAL_ERROR;
 3301              		.loc 1 782 14
 3302 008a 0123     		movs	r3, #1
 3303 008c FB73     		strb	r3, [r7, #15]
 783:Drivers/STM32F1xx_HAL_Driver/Src/stm32f1xx_hal_dma.c ****       break;
 3304              		.loc 1 783 7
 3305 008e 00BF     		nop
 3306 0090 01E0     		b	.L412
 3307              	.L403:
 784:Drivers/STM32F1xx_HAL_Driver/Src/stm32f1xx_hal_dma.c ****     }
 785:Drivers/STM32F1xx_HAL_Driver/Src/stm32f1xx_hal_dma.c ****   }
 786:Drivers/STM32F1xx_HAL_Driver/Src/stm32f1xx_hal_dma.c ****   else
 787:Drivers/STM32F1xx_HAL_Driver/Src/stm32f1xx_hal_dma.c ****   {
 788:Drivers/STM32F1xx_HAL_Driver/Src/stm32f1xx_hal_dma.c ****     status = HAL_ERROR;
 3308              		.loc 1 788 12
 3309 0092 0123     		movs	r3, #1
 3310 0094 FB73     		strb	r3, [r7, #15]
 3311              	.L412:
 789:Drivers/STM32F1xx_HAL_Driver/Src/stm32f1xx_hal_dma.c ****   } 
 790:Drivers/STM32F1xx_HAL_Driver/Src/stm32f1xx_hal_dma.c ****   
 791:Drivers/STM32F1xx_HAL_Driver/Src/stm32f1xx_hal_dma.c ****   /* Release Lock */
 792:Drivers/STM32F1xx_HAL_Driver/Src/stm32f1xx_hal_dma.c ****   __HAL_UNLOCK(hdma);
 3312              		.loc 1 792 3
 3313 0096 7B68     		ldr	r3, [r7, #4]
 3314 0098 0022     		movs	r2, #0
 3315 009a 83F82020 		strb	r2, [r3, #32]
 793:Drivers/STM32F1xx_HAL_Driver/Src/stm32f1xx_hal_dma.c ****   
 794:Drivers/STM32F1xx_HAL_Driver/Src/stm32f1xx_hal_dma.c ****   return status;
 3316              		.loc 1 794 10
ARM GAS  /tmp/ccVx4VbF.s 			page 73


 3317 009e FB7B     		ldrb	r3, [r7, #15]	@ zero_extendqisi2
 3318              	.L402:
 795:Drivers/STM32F1xx_HAL_Driver/Src/stm32f1xx_hal_dma.c **** }
 3319              		.loc 1 795 1
 3320 00a0 1846     		mov	r0, r3
 3321 00a2 1437     		adds	r7, r7, #20
 3322              	.LCFI52:
 3323              		.cfi_def_cfa_offset 4
 3324 00a4 BD46     		mov	sp, r7
 3325              	.LCFI53:
 3326              		.cfi_def_cfa_register 13
 3327              		@ sp needed
 3328 00a6 80BC     		pop	{r7}
 3329              	.LCFI54:
 3330              		.cfi_restore 7
 3331              		.cfi_def_cfa_offset 0
 3332 00a8 7047     		bx	lr
 3333              		.cfi_endproc
 3334              	.LFE75:
 3336 00aa 00BF     		.section	.text.HAL_DMA_GetState,"ax",%progbits
 3337              		.align	1
 3338              		.global	HAL_DMA_GetState
 3339              		.syntax unified
 3340              		.thumb
 3341              		.thumb_func
 3342              		.fpu softvfp
 3344              	HAL_DMA_GetState:
 3345              	.LFB76:
 796:Drivers/STM32F1xx_HAL_Driver/Src/stm32f1xx_hal_dma.c ****   
 797:Drivers/STM32F1xx_HAL_Driver/Src/stm32f1xx_hal_dma.c **** /**
 798:Drivers/STM32F1xx_HAL_Driver/Src/stm32f1xx_hal_dma.c ****   * @}
 799:Drivers/STM32F1xx_HAL_Driver/Src/stm32f1xx_hal_dma.c ****   */
 800:Drivers/STM32F1xx_HAL_Driver/Src/stm32f1xx_hal_dma.c **** 
 801:Drivers/STM32F1xx_HAL_Driver/Src/stm32f1xx_hal_dma.c **** /** @defgroup DMA_Exported_Functions_Group3 Peripheral State and Errors functions
 802:Drivers/STM32F1xx_HAL_Driver/Src/stm32f1xx_hal_dma.c ****   *  @brief    Peripheral State and Errors functions
 803:Drivers/STM32F1xx_HAL_Driver/Src/stm32f1xx_hal_dma.c ****   *
 804:Drivers/STM32F1xx_HAL_Driver/Src/stm32f1xx_hal_dma.c **** @verbatim
 805:Drivers/STM32F1xx_HAL_Driver/Src/stm32f1xx_hal_dma.c ****  ===============================================================================
 806:Drivers/STM32F1xx_HAL_Driver/Src/stm32f1xx_hal_dma.c ****             ##### Peripheral State and Errors functions #####
 807:Drivers/STM32F1xx_HAL_Driver/Src/stm32f1xx_hal_dma.c ****  ===============================================================================  
 808:Drivers/STM32F1xx_HAL_Driver/Src/stm32f1xx_hal_dma.c ****     [..]
 809:Drivers/STM32F1xx_HAL_Driver/Src/stm32f1xx_hal_dma.c ****     This subsection provides functions allowing to
 810:Drivers/STM32F1xx_HAL_Driver/Src/stm32f1xx_hal_dma.c ****       (+) Check the DMA state
 811:Drivers/STM32F1xx_HAL_Driver/Src/stm32f1xx_hal_dma.c ****       (+) Get error code
 812:Drivers/STM32F1xx_HAL_Driver/Src/stm32f1xx_hal_dma.c **** 
 813:Drivers/STM32F1xx_HAL_Driver/Src/stm32f1xx_hal_dma.c **** @endverbatim
 814:Drivers/STM32F1xx_HAL_Driver/Src/stm32f1xx_hal_dma.c ****   * @{
 815:Drivers/STM32F1xx_HAL_Driver/Src/stm32f1xx_hal_dma.c ****   */
 816:Drivers/STM32F1xx_HAL_Driver/Src/stm32f1xx_hal_dma.c **** 
 817:Drivers/STM32F1xx_HAL_Driver/Src/stm32f1xx_hal_dma.c **** /**
 818:Drivers/STM32F1xx_HAL_Driver/Src/stm32f1xx_hal_dma.c ****   * @brief  Return the DMA hande state.
 819:Drivers/STM32F1xx_HAL_Driver/Src/stm32f1xx_hal_dma.c ****   * @param  hdma: pointer to a DMA_HandleTypeDef structure that contains
 820:Drivers/STM32F1xx_HAL_Driver/Src/stm32f1xx_hal_dma.c ****   *               the configuration information for the specified DMA Channel.
 821:Drivers/STM32F1xx_HAL_Driver/Src/stm32f1xx_hal_dma.c ****   * @retval HAL state
 822:Drivers/STM32F1xx_HAL_Driver/Src/stm32f1xx_hal_dma.c ****   */
 823:Drivers/STM32F1xx_HAL_Driver/Src/stm32f1xx_hal_dma.c **** HAL_DMA_StateTypeDef HAL_DMA_GetState(DMA_HandleTypeDef *hdma)
 824:Drivers/STM32F1xx_HAL_Driver/Src/stm32f1xx_hal_dma.c **** {
ARM GAS  /tmp/ccVx4VbF.s 			page 74


 3346              		.loc 1 824 1
 3347              		.cfi_startproc
 3348              		@ args = 0, pretend = 0, frame = 8
 3349              		@ frame_needed = 1, uses_anonymous_args = 0
 3350              		@ link register save eliminated.
 3351 0000 80B4     		push	{r7}
 3352              	.LCFI55:
 3353              		.cfi_def_cfa_offset 4
 3354              		.cfi_offset 7, -4
 3355 0002 83B0     		sub	sp, sp, #12
 3356              	.LCFI56:
 3357              		.cfi_def_cfa_offset 16
 3358 0004 00AF     		add	r7, sp, #0
 3359              	.LCFI57:
 3360              		.cfi_def_cfa_register 7
 3361 0006 7860     		str	r0, [r7, #4]
 825:Drivers/STM32F1xx_HAL_Driver/Src/stm32f1xx_hal_dma.c ****   /* Return DMA handle state */
 826:Drivers/STM32F1xx_HAL_Driver/Src/stm32f1xx_hal_dma.c ****   return hdma->State;
 3362              		.loc 1 826 14
 3363 0008 7B68     		ldr	r3, [r7, #4]
 3364 000a 93F82130 		ldrb	r3, [r3, #33]	@ zero_extendqisi2
 827:Drivers/STM32F1xx_HAL_Driver/Src/stm32f1xx_hal_dma.c **** }
 3365              		.loc 1 827 1
 3366 000e 1846     		mov	r0, r3
 3367 0010 0C37     		adds	r7, r7, #12
 3368              	.LCFI58:
 3369              		.cfi_def_cfa_offset 4
 3370 0012 BD46     		mov	sp, r7
 3371              	.LCFI59:
 3372              		.cfi_def_cfa_register 13
 3373              		@ sp needed
 3374 0014 80BC     		pop	{r7}
 3375              	.LCFI60:
 3376              		.cfi_restore 7
 3377              		.cfi_def_cfa_offset 0
 3378 0016 7047     		bx	lr
 3379              		.cfi_endproc
 3380              	.LFE76:
 3382              		.section	.text.HAL_DMA_GetError,"ax",%progbits
 3383              		.align	1
 3384              		.global	HAL_DMA_GetError
 3385              		.syntax unified
 3386              		.thumb
 3387              		.thumb_func
 3388              		.fpu softvfp
 3390              	HAL_DMA_GetError:
 3391              	.LFB77:
 828:Drivers/STM32F1xx_HAL_Driver/Src/stm32f1xx_hal_dma.c **** 
 829:Drivers/STM32F1xx_HAL_Driver/Src/stm32f1xx_hal_dma.c **** /**
 830:Drivers/STM32F1xx_HAL_Driver/Src/stm32f1xx_hal_dma.c ****   * @brief  Return the DMA error code.
 831:Drivers/STM32F1xx_HAL_Driver/Src/stm32f1xx_hal_dma.c ****   * @param  hdma : pointer to a DMA_HandleTypeDef structure that contains
 832:Drivers/STM32F1xx_HAL_Driver/Src/stm32f1xx_hal_dma.c ****   *              the configuration information for the specified DMA Channel.
 833:Drivers/STM32F1xx_HAL_Driver/Src/stm32f1xx_hal_dma.c ****   * @retval DMA Error Code
 834:Drivers/STM32F1xx_HAL_Driver/Src/stm32f1xx_hal_dma.c ****   */
 835:Drivers/STM32F1xx_HAL_Driver/Src/stm32f1xx_hal_dma.c **** uint32_t HAL_DMA_GetError(DMA_HandleTypeDef *hdma)
 836:Drivers/STM32F1xx_HAL_Driver/Src/stm32f1xx_hal_dma.c **** {
 3392              		.loc 1 836 1
ARM GAS  /tmp/ccVx4VbF.s 			page 75


 3393              		.cfi_startproc
 3394              		@ args = 0, pretend = 0, frame = 8
 3395              		@ frame_needed = 1, uses_anonymous_args = 0
 3396              		@ link register save eliminated.
 3397 0000 80B4     		push	{r7}
 3398              	.LCFI61:
 3399              		.cfi_def_cfa_offset 4
 3400              		.cfi_offset 7, -4
 3401 0002 83B0     		sub	sp, sp, #12
 3402              	.LCFI62:
 3403              		.cfi_def_cfa_offset 16
 3404 0004 00AF     		add	r7, sp, #0
 3405              	.LCFI63:
 3406              		.cfi_def_cfa_register 7
 3407 0006 7860     		str	r0, [r7, #4]
 837:Drivers/STM32F1xx_HAL_Driver/Src/stm32f1xx_hal_dma.c ****   return hdma->ErrorCode;
 3408              		.loc 1 837 14
 3409 0008 7B68     		ldr	r3, [r7, #4]
 3410 000a 9B6B     		ldr	r3, [r3, #56]
 838:Drivers/STM32F1xx_HAL_Driver/Src/stm32f1xx_hal_dma.c **** }
 3411              		.loc 1 838 1
 3412 000c 1846     		mov	r0, r3
 3413 000e 0C37     		adds	r7, r7, #12
 3414              	.LCFI64:
 3415              		.cfi_def_cfa_offset 4
 3416 0010 BD46     		mov	sp, r7
 3417              	.LCFI65:
 3418              		.cfi_def_cfa_register 13
 3419              		@ sp needed
 3420 0012 80BC     		pop	{r7}
 3421              	.LCFI66:
 3422              		.cfi_restore 7
 3423              		.cfi_def_cfa_offset 0
 3424 0014 7047     		bx	lr
 3425              		.cfi_endproc
 3426              	.LFE77:
 3428              		.section	.text.DMA_SetConfig,"ax",%progbits
 3429              		.align	1
 3430              		.syntax unified
 3431              		.thumb
 3432              		.thumb_func
 3433              		.fpu softvfp
 3435              	DMA_SetConfig:
 3436              	.LFB78:
 839:Drivers/STM32F1xx_HAL_Driver/Src/stm32f1xx_hal_dma.c **** 
 840:Drivers/STM32F1xx_HAL_Driver/Src/stm32f1xx_hal_dma.c **** /**
 841:Drivers/STM32F1xx_HAL_Driver/Src/stm32f1xx_hal_dma.c ****   * @}
 842:Drivers/STM32F1xx_HAL_Driver/Src/stm32f1xx_hal_dma.c ****   */
 843:Drivers/STM32F1xx_HAL_Driver/Src/stm32f1xx_hal_dma.c **** 
 844:Drivers/STM32F1xx_HAL_Driver/Src/stm32f1xx_hal_dma.c **** /**
 845:Drivers/STM32F1xx_HAL_Driver/Src/stm32f1xx_hal_dma.c ****   * @}
 846:Drivers/STM32F1xx_HAL_Driver/Src/stm32f1xx_hal_dma.c ****   */
 847:Drivers/STM32F1xx_HAL_Driver/Src/stm32f1xx_hal_dma.c **** 
 848:Drivers/STM32F1xx_HAL_Driver/Src/stm32f1xx_hal_dma.c **** /** @addtogroup DMA_Private_Functions
 849:Drivers/STM32F1xx_HAL_Driver/Src/stm32f1xx_hal_dma.c ****   * @{
 850:Drivers/STM32F1xx_HAL_Driver/Src/stm32f1xx_hal_dma.c ****   */
 851:Drivers/STM32F1xx_HAL_Driver/Src/stm32f1xx_hal_dma.c **** 
ARM GAS  /tmp/ccVx4VbF.s 			page 76


 852:Drivers/STM32F1xx_HAL_Driver/Src/stm32f1xx_hal_dma.c **** /**
 853:Drivers/STM32F1xx_HAL_Driver/Src/stm32f1xx_hal_dma.c ****   * @brief  Sets the DMA Transfer parameter.
 854:Drivers/STM32F1xx_HAL_Driver/Src/stm32f1xx_hal_dma.c ****   * @param  hdma:       pointer to a DMA_HandleTypeDef structure that contains
 855:Drivers/STM32F1xx_HAL_Driver/Src/stm32f1xx_hal_dma.c ****   *                     the configuration information for the specified DMA Channel.
 856:Drivers/STM32F1xx_HAL_Driver/Src/stm32f1xx_hal_dma.c ****   * @param  SrcAddress: The source memory Buffer address
 857:Drivers/STM32F1xx_HAL_Driver/Src/stm32f1xx_hal_dma.c ****   * @param  DstAddress: The destination memory Buffer address
 858:Drivers/STM32F1xx_HAL_Driver/Src/stm32f1xx_hal_dma.c ****   * @param  DataLength: The length of data to be transferred from source to destination
 859:Drivers/STM32F1xx_HAL_Driver/Src/stm32f1xx_hal_dma.c ****   * @retval HAL status
 860:Drivers/STM32F1xx_HAL_Driver/Src/stm32f1xx_hal_dma.c ****   */
 861:Drivers/STM32F1xx_HAL_Driver/Src/stm32f1xx_hal_dma.c **** static void DMA_SetConfig(DMA_HandleTypeDef *hdma, uint32_t SrcAddress, uint32_t DstAddress, uint32
 862:Drivers/STM32F1xx_HAL_Driver/Src/stm32f1xx_hal_dma.c **** {
 3437              		.loc 1 862 1
 3438              		.cfi_startproc
 3439              		@ args = 0, pretend = 0, frame = 16
 3440              		@ frame_needed = 1, uses_anonymous_args = 0
 3441              		@ link register save eliminated.
 3442 0000 80B4     		push	{r7}
 3443              	.LCFI67:
 3444              		.cfi_def_cfa_offset 4
 3445              		.cfi_offset 7, -4
 3446 0002 85B0     		sub	sp, sp, #20
 3447              	.LCFI68:
 3448              		.cfi_def_cfa_offset 24
 3449 0004 00AF     		add	r7, sp, #0
 3450              	.LCFI69:
 3451              		.cfi_def_cfa_register 7
 3452 0006 F860     		str	r0, [r7, #12]
 3453 0008 B960     		str	r1, [r7, #8]
 3454 000a 7A60     		str	r2, [r7, #4]
 3455 000c 3B60     		str	r3, [r7]
 863:Drivers/STM32F1xx_HAL_Driver/Src/stm32f1xx_hal_dma.c ****   /* Clear all flags */
 864:Drivers/STM32F1xx_HAL_Driver/Src/stm32f1xx_hal_dma.c ****   hdma->DmaBaseAddress->IFCR = (DMA_ISR_GIF1 << hdma->ChannelIndex);
 3456              		.loc 1 864 53
 3457 000e FB68     		ldr	r3, [r7, #12]
 3458 0010 1A6C     		ldr	r2, [r3, #64]
 3459              		.loc 1 864 7
 3460 0012 FB68     		ldr	r3, [r7, #12]
 3461 0014 DB6B     		ldr	r3, [r3, #60]
 3462              		.loc 1 864 46
 3463 0016 0121     		movs	r1, #1
 3464 0018 01FA02F2 		lsl	r2, r1, r2
 3465              		.loc 1 864 30
 3466 001c 5A60     		str	r2, [r3, #4]
 865:Drivers/STM32F1xx_HAL_Driver/Src/stm32f1xx_hal_dma.c **** 
 866:Drivers/STM32F1xx_HAL_Driver/Src/stm32f1xx_hal_dma.c ****   /* Configure DMA Channel data length */
 867:Drivers/STM32F1xx_HAL_Driver/Src/stm32f1xx_hal_dma.c ****   hdma->Instance->CNDTR = DataLength;
 3467              		.loc 1 867 7
 3468 001e FB68     		ldr	r3, [r7, #12]
 3469 0020 1B68     		ldr	r3, [r3]
 3470              		.loc 1 867 25
 3471 0022 3A68     		ldr	r2, [r7]
 3472 0024 5A60     		str	r2, [r3, #4]
 868:Drivers/STM32F1xx_HAL_Driver/Src/stm32f1xx_hal_dma.c **** 
 869:Drivers/STM32F1xx_HAL_Driver/Src/stm32f1xx_hal_dma.c ****   /* Memory to Peripheral */
 870:Drivers/STM32F1xx_HAL_Driver/Src/stm32f1xx_hal_dma.c ****   if((hdma->Init.Direction) == DMA_MEMORY_TO_PERIPH)
 3473              		.loc 1 870 17
 3474 0026 FB68     		ldr	r3, [r7, #12]
ARM GAS  /tmp/ccVx4VbF.s 			page 77


 3475 0028 5B68     		ldr	r3, [r3, #4]
 3476              		.loc 1 870 5
 3477 002a 102B     		cmp	r3, #16
 3478 002c 08D1     		bne	.L418
 871:Drivers/STM32F1xx_HAL_Driver/Src/stm32f1xx_hal_dma.c ****   {
 872:Drivers/STM32F1xx_HAL_Driver/Src/stm32f1xx_hal_dma.c ****     /* Configure DMA Channel destination address */
 873:Drivers/STM32F1xx_HAL_Driver/Src/stm32f1xx_hal_dma.c ****     hdma->Instance->CPAR = DstAddress;
 3479              		.loc 1 873 9
 3480 002e FB68     		ldr	r3, [r7, #12]
 3481 0030 1B68     		ldr	r3, [r3]
 3482              		.loc 1 873 26
 3483 0032 7A68     		ldr	r2, [r7, #4]
 3484 0034 9A60     		str	r2, [r3, #8]
 874:Drivers/STM32F1xx_HAL_Driver/Src/stm32f1xx_hal_dma.c **** 
 875:Drivers/STM32F1xx_HAL_Driver/Src/stm32f1xx_hal_dma.c ****     /* Configure DMA Channel source address */
 876:Drivers/STM32F1xx_HAL_Driver/Src/stm32f1xx_hal_dma.c ****     hdma->Instance->CMAR = SrcAddress;
 3485              		.loc 1 876 9
 3486 0036 FB68     		ldr	r3, [r7, #12]
 3487 0038 1B68     		ldr	r3, [r3]
 3488              		.loc 1 876 26
 3489 003a BA68     		ldr	r2, [r7, #8]
 3490 003c DA60     		str	r2, [r3, #12]
 877:Drivers/STM32F1xx_HAL_Driver/Src/stm32f1xx_hal_dma.c ****   }
 878:Drivers/STM32F1xx_HAL_Driver/Src/stm32f1xx_hal_dma.c ****   /* Peripheral to Memory */
 879:Drivers/STM32F1xx_HAL_Driver/Src/stm32f1xx_hal_dma.c ****   else
 880:Drivers/STM32F1xx_HAL_Driver/Src/stm32f1xx_hal_dma.c ****   {
 881:Drivers/STM32F1xx_HAL_Driver/Src/stm32f1xx_hal_dma.c ****     /* Configure DMA Channel source address */
 882:Drivers/STM32F1xx_HAL_Driver/Src/stm32f1xx_hal_dma.c ****     hdma->Instance->CPAR = SrcAddress;
 883:Drivers/STM32F1xx_HAL_Driver/Src/stm32f1xx_hal_dma.c **** 
 884:Drivers/STM32F1xx_HAL_Driver/Src/stm32f1xx_hal_dma.c ****     /* Configure DMA Channel destination address */
 885:Drivers/STM32F1xx_HAL_Driver/Src/stm32f1xx_hal_dma.c ****     hdma->Instance->CMAR = DstAddress;
 886:Drivers/STM32F1xx_HAL_Driver/Src/stm32f1xx_hal_dma.c ****   }
 887:Drivers/STM32F1xx_HAL_Driver/Src/stm32f1xx_hal_dma.c **** }
 3491              		.loc 1 887 1
 3492 003e 07E0     		b	.L420
 3493              	.L418:
 882:Drivers/STM32F1xx_HAL_Driver/Src/stm32f1xx_hal_dma.c **** 
 3494              		.loc 1 882 9
 3495 0040 FB68     		ldr	r3, [r7, #12]
 3496 0042 1B68     		ldr	r3, [r3]
 882:Drivers/STM32F1xx_HAL_Driver/Src/stm32f1xx_hal_dma.c **** 
 3497              		.loc 1 882 26
 3498 0044 BA68     		ldr	r2, [r7, #8]
 3499 0046 9A60     		str	r2, [r3, #8]
 885:Drivers/STM32F1xx_HAL_Driver/Src/stm32f1xx_hal_dma.c ****   }
 3500              		.loc 1 885 9
 3501 0048 FB68     		ldr	r3, [r7, #12]
 3502 004a 1B68     		ldr	r3, [r3]
 885:Drivers/STM32F1xx_HAL_Driver/Src/stm32f1xx_hal_dma.c ****   }
 3503              		.loc 1 885 26
 3504 004c 7A68     		ldr	r2, [r7, #4]
 3505 004e DA60     		str	r2, [r3, #12]
 3506              	.L420:
 3507              		.loc 1 887 1
 3508 0050 00BF     		nop
 3509 0052 1437     		adds	r7, r7, #20
 3510              	.LCFI70:
ARM GAS  /tmp/ccVx4VbF.s 			page 78


 3511              		.cfi_def_cfa_offset 4
 3512 0054 BD46     		mov	sp, r7
 3513              	.LCFI71:
 3514              		.cfi_def_cfa_register 13
 3515              		@ sp needed
 3516 0056 80BC     		pop	{r7}
 3517              	.LCFI72:
 3518              		.cfi_restore 7
 3519              		.cfi_def_cfa_offset 0
 3520 0058 7047     		bx	lr
 3521              		.cfi_endproc
 3522              	.LFE78:
 3524              		.text
 3525              	.Letext0:
 3526              		.file 2 "/mnt/d/gcc-arm-none-eabi-8-2018-q4-major/arm-none-eabi/include/machine/_default_types.h"
 3527              		.file 3 "/mnt/d/gcc-arm-none-eabi-8-2018-q4-major/arm-none-eabi/include/sys/_stdint.h"
 3528              		.file 4 "Drivers/CMSIS/Include/core_cm3.h"
 3529              		.file 5 "Drivers/CMSIS/Device/ST/STM32F1xx/Include/system_stm32f1xx.h"
 3530              		.file 6 "Drivers/CMSIS/Device/ST/STM32F1xx/Include/stm32f103xe.h"
 3531              		.file 7 "/mnt/d/gcc-arm-none-eabi-8-2018-q4-major/arm-none-eabi/include/sys/lock.h"
 3532              		.file 8 "/mnt/d/gcc-arm-none-eabi-8-2018-q4-major/arm-none-eabi/include/sys/_types.h"
 3533              		.file 9 "/mnt/d/gcc-arm-none-eabi-8-2018-q4-major/lib/gcc/arm-none-eabi/8.2.1/include/stddef.h"
 3534              		.file 10 "/mnt/d/gcc-arm-none-eabi-8-2018-q4-major/arm-none-eabi/include/sys/reent.h"
 3535              		.file 11 "Drivers/CMSIS/Device/ST/STM32F1xx/Include/stm32f1xx.h"
 3536              		.file 12 "Drivers/STM32F1xx_HAL_Driver/Inc/stm32f1xx_hal_def.h"
 3537              		.file 13 "Drivers/STM32F1xx_HAL_Driver/Inc/stm32f1xx_hal_dma.h"
 3538              		.file 14 "Drivers/STM32F1xx_HAL_Driver/Inc/stm32f1xx_hal.h"
ARM GAS  /tmp/ccVx4VbF.s 			page 79

